
MiniProjectZone.elf:     file format elf32-avr

Sections:
Idx Name          Size      VMA       LMA       File off  Algn
  0 .data         00000006  00800200  00001bb8  00001c4c  2**0
                  CONTENTS, ALLOC, LOAD, DATA
  1 .text         00001bb8  00000000  00000000  00000094  2**1
                  CONTENTS, ALLOC, LOAD, READONLY, CODE
  2 .bss          0000005f  00800206  00800206  00001c52  2**0
                  ALLOC
  3 .comment      00000030  00000000  00000000  00001c52  2**0
                  CONTENTS, READONLY
  4 .note.gnu.avr.deviceinfo 00000040  00000000  00000000  00001c84  2**2
                  CONTENTS, READONLY
  5 .debug_aranges 00000228  00000000  00000000  00001cc4  2**0
                  CONTENTS, READONLY, DEBUGGING
  6 .debug_info   00002bc2  00000000  00000000  00001eec  2**0
                  CONTENTS, READONLY, DEBUGGING
  7 .debug_abbrev 00001449  00000000  00000000  00004aae  2**0
                  CONTENTS, READONLY, DEBUGGING
  8 .debug_line   000019b6  00000000  00000000  00005ef7  2**0
                  CONTENTS, READONLY, DEBUGGING
  9 .debug_frame  00000a08  00000000  00000000  000078b0  2**2
                  CONTENTS, READONLY, DEBUGGING
 10 .debug_str    00000fab  00000000  00000000  000082b8  2**0
                  CONTENTS, READONLY, DEBUGGING
 11 .debug_loc    00002972  00000000  00000000  00009263  2**0
                  CONTENTS, READONLY, DEBUGGING
 12 .debug_ranges 000001c8  00000000  00000000  0000bbd5  2**0
                  CONTENTS, READONLY, DEBUGGING

Disassembly of section .text:

00000000 <__vectors>:
       0:	84 c0       	rjmp	.+264    	; 0x10a <__ctors_end>
       2:	00 00       	nop
       4:	8c c3       	rjmp	.+1816   	; 0x71e <__vector_1>
       6:	00 00       	nop
       8:	b8 c3       	rjmp	.+1904   	; 0x77a <__vector_2>
       a:	00 00       	nop
       c:	e4 c3       	rjmp	.+1992   	; 0x7d6 <__vector_3>
       e:	00 00       	nop
      10:	10 c4       	rjmp	.+2080   	; 0x832 <__vector_4>
      12:	00 00       	nop
      14:	3c c4       	rjmp	.+2168   	; 0x88e <__vector_5>
      16:	00 00       	nop
      18:	68 c4       	rjmp	.+2256   	; 0x8ea <__vector_6>
      1a:	00 00       	nop
      1c:	94 c4       	rjmp	.+2344   	; 0x946 <__vector_7>
      1e:	00 00       	nop
      20:	c0 c4       	rjmp	.+2432   	; 0x9a2 <__vector_8>
      22:	00 00       	nop
      24:	92 c0       	rjmp	.+292    	; 0x14a <__bad_interrupt>
      26:	00 00       	nop
      28:	90 c0       	rjmp	.+288    	; 0x14a <__bad_interrupt>
      2a:	00 00       	nop
      2c:	8e c0       	rjmp	.+284    	; 0x14a <__bad_interrupt>
      2e:	00 00       	nop
      30:	8c c0       	rjmp	.+280    	; 0x14a <__bad_interrupt>
      32:	00 00       	nop
      34:	8a c0       	rjmp	.+276    	; 0x14a <__bad_interrupt>
      36:	00 00       	nop
      38:	88 c0       	rjmp	.+272    	; 0x14a <__bad_interrupt>
      3a:	00 00       	nop
      3c:	86 c0       	rjmp	.+268    	; 0x14a <__bad_interrupt>
      3e:	00 00       	nop
      40:	84 c0       	rjmp	.+264    	; 0x14a <__bad_interrupt>
      42:	00 00       	nop
      44:	82 c0       	rjmp	.+260    	; 0x14a <__bad_interrupt>
      46:	00 00       	nop
      48:	80 c0       	rjmp	.+256    	; 0x14a <__bad_interrupt>
      4a:	00 00       	nop
      4c:	7e c0       	rjmp	.+252    	; 0x14a <__bad_interrupt>
      4e:	00 00       	nop
      50:	7c c0       	rjmp	.+248    	; 0x14a <__bad_interrupt>
      52:	00 00       	nop
      54:	7a c0       	rjmp	.+244    	; 0x14a <__bad_interrupt>
      56:	00 00       	nop
      58:	78 c0       	rjmp	.+240    	; 0x14a <__bad_interrupt>
      5a:	00 00       	nop
      5c:	76 c0       	rjmp	.+236    	; 0x14a <__bad_interrupt>
      5e:	00 00       	nop
      60:	74 c0       	rjmp	.+232    	; 0x14a <__bad_interrupt>
      62:	00 00       	nop
      64:	0c 94 69 0b 	jmp	0x16d2	; 0x16d2 <__vector_25>
      68:	0c 94 29 0d 	jmp	0x1a52	; 0x1a52 <__vector_26>
      6c:	0c 94 3d 0c 	jmp	0x187a	; 0x187a <__vector_27>
      70:	6c c0       	rjmp	.+216    	; 0x14a <__bad_interrupt>
      72:	00 00       	nop
      74:	6a c0       	rjmp	.+212    	; 0x14a <__bad_interrupt>
      76:	00 00       	nop
      78:	68 c0       	rjmp	.+208    	; 0x14a <__bad_interrupt>
      7a:	00 00       	nop
      7c:	66 c0       	rjmp	.+204    	; 0x14a <__bad_interrupt>
      7e:	00 00       	nop
      80:	64 c0       	rjmp	.+200    	; 0x14a <__bad_interrupt>
      82:	00 00       	nop
      84:	62 c0       	rjmp	.+196    	; 0x14a <__bad_interrupt>
      86:	00 00       	nop
      88:	60 c0       	rjmp	.+192    	; 0x14a <__bad_interrupt>
      8a:	00 00       	nop
      8c:	5e c0       	rjmp	.+188    	; 0x14a <__bad_interrupt>
      8e:	00 00       	nop
      90:	0c 94 9e 0b 	jmp	0x173c	; 0x173c <__vector_36>
      94:	0c 94 51 0d 	jmp	0x1aa2	; 0x1aa2 <__vector_37>
      98:	0c 94 78 0c 	jmp	0x18f0	; 0x18f0 <__vector_38>
      9c:	56 c0       	rjmp	.+172    	; 0x14a <__bad_interrupt>
      9e:	00 00       	nop
      a0:	54 c0       	rjmp	.+168    	; 0x14a <__bad_interrupt>
      a2:	00 00       	nop
      a4:	52 c0       	rjmp	.+164    	; 0x14a <__bad_interrupt>
      a6:	00 00       	nop
      a8:	50 c0       	rjmp	.+160    	; 0x14a <__bad_interrupt>
      aa:	00 00       	nop
      ac:	4e c0       	rjmp	.+156    	; 0x14a <__bad_interrupt>
      ae:	00 00       	nop
      b0:	4c c0       	rjmp	.+152    	; 0x14a <__bad_interrupt>
      b2:	00 00       	nop
      b4:	4a c0       	rjmp	.+148    	; 0x14a <__bad_interrupt>
      b6:	00 00       	nop
      b8:	48 c0       	rjmp	.+144    	; 0x14a <__bad_interrupt>
      ba:	00 00       	nop
      bc:	46 c0       	rjmp	.+140    	; 0x14a <__bad_interrupt>
      be:	00 00       	nop
      c0:	44 c0       	rjmp	.+136    	; 0x14a <__bad_interrupt>
      c2:	00 00       	nop
      c4:	42 c0       	rjmp	.+132    	; 0x14a <__bad_interrupt>
      c6:	00 00       	nop
      c8:	40 c0       	rjmp	.+128    	; 0x14a <__bad_interrupt>
      ca:	00 00       	nop
      cc:	0c 94 d3 0b 	jmp	0x17a6	; 0x17a6 <__vector_51>
      d0:	0c 94 79 0d 	jmp	0x1af2	; 0x1af2 <__vector_52>
      d4:	0c 94 b3 0c 	jmp	0x1966	; 0x1966 <__vector_53>
      d8:	0c 94 08 0c 	jmp	0x1810	; 0x1810 <__vector_54>
      dc:	0c 94 a1 0d 	jmp	0x1b42	; 0x1b42 <__vector_55>
      e0:	0c 94 ee 0c 	jmp	0x19dc	; 0x19dc <__vector_56>
      e4:	0e 05       	cpc	r16, r14
      e6:	1e 05       	cpc	r17, r14
      e8:	2e 05       	cpc	r18, r14
      ea:	3e 05       	cpc	r19, r14
      ec:	4e 05       	cpc	r20, r14
      ee:	5e 05       	cpc	r21, r14
      f0:	6e 05       	cpc	r22, r14
      f2:	7e 05       	cpc	r23, r14
      f4:	8e 05       	cpc	r24, r14
      f6:	9e 05       	cpc	r25, r14
      f8:	ae 05       	cpc	r26, r14
      fa:	a1 07       	cpc	r26, r17
      fc:	ac 07       	cpc	r26, r28
      fe:	c1 07       	cpc	r28, r17
     100:	d6 07       	cpc	r29, r22
     102:	eb 07       	cpc	r30, r27
     104:	08 08       	sbc	r0, r8
     106:	44 08       	sbc	r4, r4
     108:	65 08       	sbc	r6, r5

0000010a <__ctors_end>:
     10a:	11 24       	eor	r1, r1
     10c:	1f be       	out	0x3f, r1	; 63
     10e:	cf ef       	ldi	r28, 0xFF	; 255
     110:	d1 e2       	ldi	r29, 0x21	; 33
     112:	de bf       	out	0x3e, r29	; 62
     114:	cd bf       	out	0x3d, r28	; 61
     116:	00 e0       	ldi	r16, 0x00	; 0
     118:	0c bf       	out	0x3c, r16	; 60

0000011a <__do_copy_data>:
     11a:	12 e0       	ldi	r17, 0x02	; 2
     11c:	a0 e0       	ldi	r26, 0x00	; 0
     11e:	b2 e0       	ldi	r27, 0x02	; 2
     120:	e8 eb       	ldi	r30, 0xB8	; 184
     122:	fb e1       	ldi	r31, 0x1B	; 27
     124:	00 e0       	ldi	r16, 0x00	; 0
     126:	0b bf       	out	0x3b, r16	; 59
     128:	02 c0       	rjmp	.+4      	; 0x12e <__do_copy_data+0x14>
     12a:	07 90       	elpm	r0, Z+
     12c:	0d 92       	st	X+, r0
     12e:	a6 30       	cpi	r26, 0x06	; 6
     130:	b1 07       	cpc	r27, r17
     132:	d9 f7       	brne	.-10     	; 0x12a <__do_copy_data+0x10>

00000134 <__do_clear_bss>:
     134:	22 e0       	ldi	r18, 0x02	; 2
     136:	a6 e0       	ldi	r26, 0x06	; 6
     138:	b2 e0       	ldi	r27, 0x02	; 2
     13a:	01 c0       	rjmp	.+2      	; 0x13e <.do_clear_bss_start>

0000013c <.do_clear_bss_loop>:
     13c:	1d 92       	st	X+, r1

0000013e <.do_clear_bss_start>:
     13e:	a5 36       	cpi	r26, 0x65	; 101
     140:	b2 07       	cpc	r27, r18
     142:	e1 f7       	brne	.-8      	; 0x13c <.do_clear_bss_loop>
     144:	1a d6       	rcall	.+3124   	; 0xd7a <main>
     146:	0c 94 da 0d 	jmp	0x1bb4	; 0x1bb4 <_exit>

0000014a <__bad_interrupt>:
     14a:	5a cf       	rjmp	.-332    	; 0x0 <__vectors>

0000014c <btn_interrupt>:
	}while(0);
	return err;
}

void btn_interrupt(uint8_t int_num)
{	
     14c:	cf 93       	push	r28
     14e:	c8 2f       	mov	r28, r24
	bool state;
	if (int_num<4)
     150:	84 30       	cpi	r24, 0x04	; 4
     152:	b0 f4       	brcc	.+44     	; 0x180 <btn_interrupt+0x34>
	{
		state=(gpio_hal_pin_read(&PIND,int_num));
     154:	68 2f       	mov	r22, r24
     156:	89 e2       	ldi	r24, 0x29	; 41
     158:	90 e0       	ldi	r25, 0x00	; 0
     15a:	ad d1       	rcall	.+858    	; 0x4b6 <gpio_hal_pin_read>
		if (g_button_callback != NULL)
     15c:	e0 91 1f 02 	lds	r30, 0x021F	; 0x80021f <g_button_callback>
     160:	f0 91 20 02 	lds	r31, 0x0220	; 0x800220 <g_button_callback+0x1>
     164:	30 97       	sbiw	r30, 0x00	; 0
     166:	09 f1       	breq	.+66     	; 0x1aa <btn_interrupt+0x5e>
		{	
			if (state)
     168:	88 23       	and	r24, r24
     16a:	29 f0       	breq	.+10     	; 0x176 <btn_interrupt+0x2a>
			{
				g_button_callback(PortD,int_num, released);
     16c:	41 e0       	ldi	r20, 0x01	; 1
     16e:	6c 2f       	mov	r22, r28
     170:	83 e0       	ldi	r24, 0x03	; 3
     172:	19 95       	eicall
     174:	1a c0       	rjmp	.+52     	; 0x1aa <btn_interrupt+0x5e>
			}
			else
			{
				g_button_callback(PortD,int_num, pressed);
     176:	40 e0       	ldi	r20, 0x00	; 0
     178:	6c 2f       	mov	r22, r28
     17a:	83 e0       	ldi	r24, 0x03	; 3
     17c:	19 95       	eicall
     17e:	15 c0       	rjmp	.+42     	; 0x1aa <btn_interrupt+0x5e>
			}
		}	
	}
	else
	{
		state=(gpio_hal_pin_read(&PINE,int_num));
     180:	68 2f       	mov	r22, r24
     182:	8c e2       	ldi	r24, 0x2C	; 44
     184:	90 e0       	ldi	r25, 0x00	; 0
     186:	97 d1       	rcall	.+814    	; 0x4b6 <gpio_hal_pin_read>
		if (g_button_callback != NULL)
     188:	e0 91 1f 02 	lds	r30, 0x021F	; 0x80021f <g_button_callback>
     18c:	f0 91 20 02 	lds	r31, 0x0220	; 0x800220 <g_button_callback+0x1>
     190:	30 97       	sbiw	r30, 0x00	; 0
     192:	59 f0       	breq	.+22     	; 0x1aa <btn_interrupt+0x5e>
		{
			if (state)
     194:	88 23       	and	r24, r24
     196:	29 f0       	breq	.+10     	; 0x1a2 <btn_interrupt+0x56>
			{
				g_button_callback(PortE,int_num, released);
     198:	41 e0       	ldi	r20, 0x01	; 1
     19a:	6c 2f       	mov	r22, r28
     19c:	84 e0       	ldi	r24, 0x04	; 4
     19e:	19 95       	eicall
     1a0:	04 c0       	rjmp	.+8      	; 0x1aa <btn_interrupt+0x5e>
			}
			else
			{
				g_button_callback(PortE,int_num, pressed);
     1a2:	40 e0       	ldi	r20, 0x00	; 0
     1a4:	6c 2f       	mov	r22, r28
     1a6:	84 e0       	ldi	r24, 0x04	; 4
     1a8:	19 95       	eicall
			}
		}
	}
}
     1aa:	cf 91       	pop	r28
     1ac:	08 95       	ret

000001ae <btn_init>:
#include "error.h"

ButtonCallback_t g_button_callback;

uint32_t btn_init (portx btn_port, uint8_t btn_pin)
{	
     1ae:	cf 93       	push	r28
	uint32_t err=NO_ERROR;
	g_button_callback = NULL;
     1b0:	10 92 20 02 	sts	0x0220, r1	; 0x800220 <g_button_callback+0x1>
     1b4:	10 92 1f 02 	sts	0x021F, r1	; 0x80021f <g_button_callback>
	do 
	{
		if (btn_port!=PortD && btn_port!=PortE)
     1b8:	9d ef       	ldi	r25, 0xFD	; 253
     1ba:	98 0f       	add	r25, r24
     1bc:	92 30       	cpi	r25, 0x02	; 2
     1be:	50 f0       	brcs	.+20     	; 0x1d4 <btn_init+0x26>
		{
			if (btn_port==PortA || btn_port==PortB || btn_port==PortC || btn_port==PortF || btn_port==PortG || btn_port==PortH || btn_port==PortJ || btn_port==PortK || btn_port==PortL )
     1c0:	83 30       	cpi	r24, 0x03	; 3
     1c2:	88 f1       	brcs	.+98     	; 0x226 <btn_init+0x78>
     1c4:	85 50       	subi	r24, 0x05	; 5
     1c6:	86 30       	cpi	r24, 0x06	; 6
     1c8:	98 f1       	brcs	.+102    	; 0x230 <btn_init+0x82>
				err=PIN_NOT_SUPPORT;
				break;
			}
			else
			{
				err=PORT_ERROR;
     1ca:	62 e0       	ldi	r22, 0x02	; 2
     1cc:	70 e0       	ldi	r23, 0x00	; 0
     1ce:	80 e0       	ldi	r24, 0x00	; 0
     1d0:	90 e0       	ldi	r25, 0x00	; 0
     1d2:	45 c0       	rjmp	.+138    	; 0x25e <btn_init+0xb0>
				break;
			}
		}
		if (btn_pin>7)
     1d4:	68 30       	cpi	r22, 0x08	; 8
     1d6:	88 f5       	brcc	.+98     	; 0x23a <btn_init+0x8c>
     1d8:	c6 2f       	mov	r28, r22
		{
			err=PIN_ERROR;
			break;
		}
		if (btn_port==PortD)
     1da:	83 30       	cpi	r24, 0x03	; 3
     1dc:	89 f4       	brne	.+34     	; 0x200 <btn_init+0x52>
		{	
			if (btn_pin>3)
     1de:	64 30       	cpi	r22, 0x04	; 4
     1e0:	88 f5       	brcc	.+98     	; 0x244 <btn_init+0x96>
			{
				err=PIN_NOT_SUPPORT;
				break;
			}
			gpio_hal_pin_config_interrupt(&PORTD, btn_pin, change, btn_interrupt);
     1e2:	26 ea       	ldi	r18, 0xA6	; 166
     1e4:	30 e0       	ldi	r19, 0x00	; 0
     1e6:	41 e0       	ldi	r20, 0x01	; 1
     1e8:	8b e2       	ldi	r24, 0x2B	; 43
     1ea:	90 e0       	ldi	r25, 0x00	; 0
     1ec:	6f d1       	rcall	.+734    	; 0x4cc <gpio_hal_pin_config_interrupt>
			gpio_hal_pin_init(&DDRD, btn_pin, input);
     1ee:	40 e0       	ldi	r20, 0x00	; 0
     1f0:	6c 2f       	mov	r22, r28
     1f2:	8a e2       	ldi	r24, 0x2A	; 42
     1f4:	90 e0       	ldi	r25, 0x00	; 0
     1f6:	44 d0       	rcall	.+136    	; 0x280 <gpio_hal_pin_init>

ButtonCallback_t g_button_callback;

uint32_t btn_init (portx btn_port, uint8_t btn_pin)
{	
	uint32_t err=NO_ERROR;
     1f8:	60 e0       	ldi	r22, 0x00	; 0
     1fa:	70 e0       	ldi	r23, 0x00	; 0
     1fc:	cb 01       	movw	r24, r22
     1fe:	2f c0       	rjmp	.+94     	; 0x25e <btn_init+0xb0>
				break;
			}
			gpio_hal_pin_config_interrupt(&PORTD, btn_pin, change, btn_interrupt);
			gpio_hal_pin_init(&DDRD, btn_pin, input);
  		}
		else if (btn_port==PortE)
     200:	84 30       	cpi	r24, 0x04	; 4
     202:	29 f5       	brne	.+74     	; 0x24e <btn_init+0xa0>
		{	
			if (btn_pin<4)
     204:	64 30       	cpi	r22, 0x04	; 4
     206:	38 f1       	brcs	.+78     	; 0x256 <btn_init+0xa8>
			{
				err=PIN_NOT_SUPPORT;
				break;
			}
			gpio_hal_pin_config_interrupt(&PORTE, btn_pin, change, btn_interrupt);
     208:	26 ea       	ldi	r18, 0xA6	; 166
     20a:	30 e0       	ldi	r19, 0x00	; 0
     20c:	41 e0       	ldi	r20, 0x01	; 1
     20e:	8e e2       	ldi	r24, 0x2E	; 46
     210:	90 e0       	ldi	r25, 0x00	; 0
     212:	5c d1       	rcall	.+696    	; 0x4cc <gpio_hal_pin_config_interrupt>
			gpio_hal_pin_init(&DDRE, btn_pin, input);
     214:	40 e0       	ldi	r20, 0x00	; 0
     216:	6c 2f       	mov	r22, r28
     218:	8d e2       	ldi	r24, 0x2D	; 45
     21a:	90 e0       	ldi	r25, 0x00	; 0
     21c:	31 d0       	rcall	.+98     	; 0x280 <gpio_hal_pin_init>

ButtonCallback_t g_button_callback;

uint32_t btn_init (portx btn_port, uint8_t btn_pin)
{	
	uint32_t err=NO_ERROR;
     21e:	60 e0       	ldi	r22, 0x00	; 0
     220:	70 e0       	ldi	r23, 0x00	; 0
     222:	cb 01       	movw	r24, r22
     224:	1c c0       	rjmp	.+56     	; 0x25e <btn_init+0xb0>
	{
		if (btn_port!=PortD && btn_port!=PortE)
		{
			if (btn_port==PortA || btn_port==PortB || btn_port==PortC || btn_port==PortF || btn_port==PortG || btn_port==PortH || btn_port==PortJ || btn_port==PortK || btn_port==PortL )
			{
				err=PIN_NOT_SUPPORT;
     226:	64 e0       	ldi	r22, 0x04	; 4
     228:	70 e0       	ldi	r23, 0x00	; 0
     22a:	80 e0       	ldi	r24, 0x00	; 0
     22c:	90 e0       	ldi	r25, 0x00	; 0
     22e:	17 c0       	rjmp	.+46     	; 0x25e <btn_init+0xb0>
     230:	64 e0       	ldi	r22, 0x04	; 4
     232:	70 e0       	ldi	r23, 0x00	; 0
     234:	80 e0       	ldi	r24, 0x00	; 0
     236:	90 e0       	ldi	r25, 0x00	; 0
     238:	12 c0       	rjmp	.+36     	; 0x25e <btn_init+0xb0>
				break;
			}
		}
		if (btn_pin>7)
		{
			err=PIN_ERROR;
     23a:	63 e0       	ldi	r22, 0x03	; 3
     23c:	70 e0       	ldi	r23, 0x00	; 0
     23e:	80 e0       	ldi	r24, 0x00	; 0
     240:	90 e0       	ldi	r25, 0x00	; 0
     242:	0d c0       	rjmp	.+26     	; 0x25e <btn_init+0xb0>
		}
		if (btn_port==PortD)
		{	
			if (btn_pin>3)
			{
				err=PIN_NOT_SUPPORT;
     244:	64 e0       	ldi	r22, 0x04	; 4
     246:	70 e0       	ldi	r23, 0x00	; 0
     248:	80 e0       	ldi	r24, 0x00	; 0
     24a:	90 e0       	ldi	r25, 0x00	; 0
     24c:	08 c0       	rjmp	.+16     	; 0x25e <btn_init+0xb0>

ButtonCallback_t g_button_callback;

uint32_t btn_init (portx btn_port, uint8_t btn_pin)
{	
	uint32_t err=NO_ERROR;
     24e:	60 e0       	ldi	r22, 0x00	; 0
     250:	70 e0       	ldi	r23, 0x00	; 0
     252:	cb 01       	movw	r24, r22
     254:	04 c0       	rjmp	.+8      	; 0x25e <btn_init+0xb0>
  		}
		else if (btn_port==PortE)
		{	
			if (btn_pin<4)
			{
				err=PIN_NOT_SUPPORT;
     256:	64 e0       	ldi	r22, 0x04	; 4
     258:	70 e0       	ldi	r23, 0x00	; 0
     25a:	80 e0       	ldi	r24, 0x00	; 0
     25c:	90 e0       	ldi	r25, 0x00	; 0
			gpio_hal_pin_config_interrupt(&PORTE, btn_pin, change, btn_interrupt);
			gpio_hal_pin_init(&DDRE, btn_pin, input);
		}
	} while (0);
	return err;
}
     25e:	cf 91       	pop	r28
     260:	08 95       	ret

00000262 <btn_set_event_callback>:
uint32_t btn_set_event_callback(ButtonCallback_t callback)
{
	uint32_t err=NO_ERROR;
	do 
	{
		if (callback == NULL)
     262:	00 97       	sbiw	r24, 0x00	; 0
     264:	41 f0       	breq	.+16     	; 0x276 <btn_set_event_callback+0x14>
		{
			err = APP_CALLBACK_MISSING;
			break;
		}
		g_button_callback = callback;
     266:	90 93 20 02 	sts	0x0220, r25	; 0x800220 <g_button_callback+0x1>
     26a:	80 93 1f 02 	sts	0x021F, r24	; 0x80021f <g_button_callback>
	return err;
}

uint32_t btn_set_event_callback(ButtonCallback_t callback)
{
	uint32_t err=NO_ERROR;
     26e:	60 e0       	ldi	r22, 0x00	; 0
     270:	70 e0       	ldi	r23, 0x00	; 0
     272:	cb 01       	movw	r24, r22
     274:	08 95       	ret
	do 
	{
		if (callback == NULL)
		{
			err = APP_CALLBACK_MISSING;
     276:	6c e0       	ldi	r22, 0x0C	; 12
     278:	70 e0       	ldi	r23, 0x00	; 0
     27a:	80 e0       	ldi	r24, 0x00	; 0
     27c:	90 e0       	ldi	r25, 0x00	; 0
			break;
		}
		g_button_callback = callback;
	}while(0);
	return err;
}
     27e:	08 95       	ret

00000280 <gpio_hal_pin_init>:
	
interrupt_callback_t g_interrupt_callback = NULL;


uint32_t gpio_hal_pin_init(volatile uint8_t *port, uint8_t pin, io iotype )
{	
     280:	fc 01       	movw	r30, r24
	uint32_t err=NO_ERROR;
	do 
	{
		if (port==NULL)
     282:	89 2b       	or	r24, r25
     284:	09 f4       	brne	.+2      	; 0x288 <gpio_hal_pin_init+0x8>
     286:	51 c0       	rjmp	.+162    	; 0x32a <gpio_hal_pin_init+0xaa>
		{
			err=NULL_ERROR;
			break;
		}
		if (*port!=DDRA && *port!=DDRB && *port!=DDRC && *port!=DDRD && *port!=DDRE && *port!=DDRF && *port!=DDRG && *port!=DDRH && *port!=DDRJ && *port!=DDRK && *port!=DDRL)
     288:	90 81       	ld	r25, Z
     28a:	81 b1       	in	r24, 0x01	; 1
     28c:	98 17       	cp	r25, r24
     28e:	61 f1       	breq	.+88     	; 0x2e8 <gpio_hal_pin_init+0x68>
     290:	90 81       	ld	r25, Z
     292:	84 b1       	in	r24, 0x04	; 4
     294:	98 17       	cp	r25, r24
     296:	41 f1       	breq	.+80     	; 0x2e8 <gpio_hal_pin_init+0x68>
     298:	90 81       	ld	r25, Z
     29a:	87 b1       	in	r24, 0x07	; 7
     29c:	98 17       	cp	r25, r24
     29e:	21 f1       	breq	.+72     	; 0x2e8 <gpio_hal_pin_init+0x68>
     2a0:	90 81       	ld	r25, Z
     2a2:	8a b1       	in	r24, 0x0a	; 10
     2a4:	98 17       	cp	r25, r24
     2a6:	01 f1       	breq	.+64     	; 0x2e8 <gpio_hal_pin_init+0x68>
     2a8:	90 81       	ld	r25, Z
     2aa:	8d b1       	in	r24, 0x0d	; 13
     2ac:	98 17       	cp	r25, r24
     2ae:	e1 f0       	breq	.+56     	; 0x2e8 <gpio_hal_pin_init+0x68>
     2b0:	90 81       	ld	r25, Z
     2b2:	80 b3       	in	r24, 0x10	; 16
     2b4:	98 17       	cp	r25, r24
     2b6:	c1 f0       	breq	.+48     	; 0x2e8 <gpio_hal_pin_init+0x68>
     2b8:	90 81       	ld	r25, Z
     2ba:	83 b3       	in	r24, 0x13	; 19
     2bc:	98 17       	cp	r25, r24
     2be:	a1 f0       	breq	.+40     	; 0x2e8 <gpio_hal_pin_init+0x68>
     2c0:	90 81       	ld	r25, Z
     2c2:	80 91 01 01 	lds	r24, 0x0101	; 0x800101 <__TEXT_REGION_LENGTH__+0x700101>
     2c6:	98 17       	cp	r25, r24
     2c8:	79 f0       	breq	.+30     	; 0x2e8 <gpio_hal_pin_init+0x68>
     2ca:	90 81       	ld	r25, Z
     2cc:	80 91 04 01 	lds	r24, 0x0104	; 0x800104 <__TEXT_REGION_LENGTH__+0x700104>
     2d0:	98 17       	cp	r25, r24
     2d2:	51 f0       	breq	.+20     	; 0x2e8 <gpio_hal_pin_init+0x68>
     2d4:	90 81       	ld	r25, Z
     2d6:	80 91 07 01 	lds	r24, 0x0107	; 0x800107 <__TEXT_REGION_LENGTH__+0x700107>
     2da:	98 17       	cp	r25, r24
     2dc:	29 f0       	breq	.+10     	; 0x2e8 <gpio_hal_pin_init+0x68>
     2de:	90 81       	ld	r25, Z
     2e0:	80 91 0a 01 	lds	r24, 0x010A	; 0x80010a <__TEXT_REGION_LENGTH__+0x70010a>
     2e4:	98 13       	cpse	r25, r24
     2e6:	26 c0       	rjmp	.+76     	; 0x334 <gpio_hal_pin_init+0xb4>
				{
					err=PORT_ERROR;
					break;
				}
		if (pin>7)
     2e8:	68 30       	cpi	r22, 0x08	; 8
     2ea:	48 f5       	brcc	.+82     	; 0x33e <gpio_hal_pin_init+0xbe>
		{
			err=PIN_ERROR;
			break;
		}
		if (iotype)
     2ec:	44 23       	and	r20, r20
     2ee:	71 f0       	breq	.+28     	; 0x30c <gpio_hal_pin_init+0x8c>
		{
			*port |= (1 << pin);
     2f0:	20 81       	ld	r18, Z
     2f2:	81 e0       	ldi	r24, 0x01	; 1
     2f4:	90 e0       	ldi	r25, 0x00	; 0
     2f6:	02 c0       	rjmp	.+4      	; 0x2fc <gpio_hal_pin_init+0x7c>
     2f8:	88 0f       	add	r24, r24
     2fa:	99 1f       	adc	r25, r25
     2fc:	6a 95       	dec	r22
     2fe:	e2 f7       	brpl	.-8      	; 0x2f8 <gpio_hal_pin_init+0x78>
     300:	82 2b       	or	r24, r18
     302:	80 83       	st	Z, r24
interrupt_callback_t g_interrupt_callback = NULL;


uint32_t gpio_hal_pin_init(volatile uint8_t *port, uint8_t pin, io iotype )
{	
	uint32_t err=NO_ERROR;
     304:	60 e0       	ldi	r22, 0x00	; 0
     306:	70 e0       	ldi	r23, 0x00	; 0
     308:	cb 01       	movw	r24, r22
     30a:	08 95       	ret
		{
			*port |= (1 << pin);
		}
		else
		{
			*port &= ~(1 << pin);
     30c:	20 81       	ld	r18, Z
     30e:	81 e0       	ldi	r24, 0x01	; 1
     310:	90 e0       	ldi	r25, 0x00	; 0
     312:	02 c0       	rjmp	.+4      	; 0x318 <gpio_hal_pin_init+0x98>
     314:	88 0f       	add	r24, r24
     316:	99 1f       	adc	r25, r25
     318:	6a 95       	dec	r22
     31a:	e2 f7       	brpl	.-8      	; 0x314 <gpio_hal_pin_init+0x94>
     31c:	80 95       	com	r24
     31e:	82 23       	and	r24, r18
     320:	80 83       	st	Z, r24
interrupt_callback_t g_interrupt_callback = NULL;


uint32_t gpio_hal_pin_init(volatile uint8_t *port, uint8_t pin, io iotype )
{	
	uint32_t err=NO_ERROR;
     322:	60 e0       	ldi	r22, 0x00	; 0
     324:	70 e0       	ldi	r23, 0x00	; 0
     326:	cb 01       	movw	r24, r22
     328:	08 95       	ret
	do 
	{
		if (port==NULL)
		{
			err=NULL_ERROR;
     32a:	61 e0       	ldi	r22, 0x01	; 1
     32c:	70 e0       	ldi	r23, 0x00	; 0
     32e:	80 e0       	ldi	r24, 0x00	; 0
     330:	90 e0       	ldi	r25, 0x00	; 0
     332:	08 95       	ret
			break;
		}
		if (*port!=DDRA && *port!=DDRB && *port!=DDRC && *port!=DDRD && *port!=DDRE && *port!=DDRF && *port!=DDRG && *port!=DDRH && *port!=DDRJ && *port!=DDRK && *port!=DDRL)
				{
					err=PORT_ERROR;
     334:	62 e0       	ldi	r22, 0x02	; 2
     336:	70 e0       	ldi	r23, 0x00	; 0
     338:	80 e0       	ldi	r24, 0x00	; 0
     33a:	90 e0       	ldi	r25, 0x00	; 0
     33c:	08 95       	ret
					break;
				}
		if (pin>7)
		{
			err=PIN_ERROR;
     33e:	63 e0       	ldi	r22, 0x03	; 3
     340:	70 e0       	ldi	r23, 0x00	; 0
     342:	80 e0       	ldi	r24, 0x00	; 0
     344:	90 e0       	ldi	r25, 0x00	; 0
		{
			*port &= ~(1 << pin);
		}
	} while (0);
	return err;
}
     346:	08 95       	ret

00000348 <gpio_hal_pin_set>:

uint32_t gpio_hal_pin_set(volatile uint8_t *port, uint8_t pin, uint8_t value)
{
     348:	fc 01       	movw	r30, r24
	uint32_t err=NO_ERROR;
	do 
	{	
		if (port==NULL)
     34a:	89 2b       	or	r24, r25
     34c:	09 f4       	brne	.+2      	; 0x350 <gpio_hal_pin_set+0x8>
     34e:	51 c0       	rjmp	.+162    	; 0x3f2 <gpio_hal_pin_set+0xaa>
		{
			err=NULL_ERROR;
			break;
		}
		if (*port!=PORTA && *port!=PORTB && *port!=PORTC && *port!=PORTD && *port!=PORTE && *port!=PORTF && *port!=PORTG && *port!=PORTH && *port!=PORTJ && *port!=PORTK && *port!=PORTL)
     350:	90 81       	ld	r25, Z
     352:	82 b1       	in	r24, 0x02	; 2
     354:	98 17       	cp	r25, r24
     356:	61 f1       	breq	.+88     	; 0x3b0 <gpio_hal_pin_set+0x68>
     358:	90 81       	ld	r25, Z
     35a:	85 b1       	in	r24, 0x05	; 5
     35c:	98 17       	cp	r25, r24
     35e:	41 f1       	breq	.+80     	; 0x3b0 <gpio_hal_pin_set+0x68>
     360:	90 81       	ld	r25, Z
     362:	88 b1       	in	r24, 0x08	; 8
     364:	98 17       	cp	r25, r24
     366:	21 f1       	breq	.+72     	; 0x3b0 <gpio_hal_pin_set+0x68>
     368:	90 81       	ld	r25, Z
     36a:	8b b1       	in	r24, 0x0b	; 11
     36c:	98 17       	cp	r25, r24
     36e:	01 f1       	breq	.+64     	; 0x3b0 <gpio_hal_pin_set+0x68>
     370:	90 81       	ld	r25, Z
     372:	8e b1       	in	r24, 0x0e	; 14
     374:	98 17       	cp	r25, r24
     376:	e1 f0       	breq	.+56     	; 0x3b0 <gpio_hal_pin_set+0x68>
     378:	90 81       	ld	r25, Z
     37a:	81 b3       	in	r24, 0x11	; 17
     37c:	98 17       	cp	r25, r24
     37e:	c1 f0       	breq	.+48     	; 0x3b0 <gpio_hal_pin_set+0x68>
     380:	90 81       	ld	r25, Z
     382:	84 b3       	in	r24, 0x14	; 20
     384:	98 17       	cp	r25, r24
     386:	a1 f0       	breq	.+40     	; 0x3b0 <gpio_hal_pin_set+0x68>
     388:	90 81       	ld	r25, Z
     38a:	80 91 02 01 	lds	r24, 0x0102	; 0x800102 <__TEXT_REGION_LENGTH__+0x700102>
     38e:	98 17       	cp	r25, r24
     390:	79 f0       	breq	.+30     	; 0x3b0 <gpio_hal_pin_set+0x68>
     392:	90 81       	ld	r25, Z
     394:	80 91 05 01 	lds	r24, 0x0105	; 0x800105 <__TEXT_REGION_LENGTH__+0x700105>
     398:	98 17       	cp	r25, r24
     39a:	51 f0       	breq	.+20     	; 0x3b0 <gpio_hal_pin_set+0x68>
     39c:	90 81       	ld	r25, Z
     39e:	80 91 08 01 	lds	r24, 0x0108	; 0x800108 <__TEXT_REGION_LENGTH__+0x700108>
     3a2:	98 17       	cp	r25, r24
     3a4:	29 f0       	breq	.+10     	; 0x3b0 <gpio_hal_pin_set+0x68>
     3a6:	90 81       	ld	r25, Z
     3a8:	80 91 0b 01 	lds	r24, 0x010B	; 0x80010b <__TEXT_REGION_LENGTH__+0x70010b>
     3ac:	98 13       	cpse	r25, r24
     3ae:	26 c0       	rjmp	.+76     	; 0x3fc <gpio_hal_pin_set+0xb4>
		{
			err=PORT_ERROR;
			break;
		}
		
		if (pin>7)
     3b0:	68 30       	cpi	r22, 0x08	; 8
     3b2:	48 f5       	brcc	.+82     	; 0x406 <__LOCK_REGION_LENGTH__+0x6>
		{
			err=PIN_ERROR;
			break;
		}
		if (value)
     3b4:	44 23       	and	r20, r20
     3b6:	71 f0       	breq	.+28     	; 0x3d4 <gpio_hal_pin_set+0x8c>
		{
			*port |= (1 << pin);
     3b8:	20 81       	ld	r18, Z
     3ba:	81 e0       	ldi	r24, 0x01	; 1
     3bc:	90 e0       	ldi	r25, 0x00	; 0
     3be:	02 c0       	rjmp	.+4      	; 0x3c4 <gpio_hal_pin_set+0x7c>
     3c0:	88 0f       	add	r24, r24
     3c2:	99 1f       	adc	r25, r25
     3c4:	6a 95       	dec	r22
     3c6:	e2 f7       	brpl	.-8      	; 0x3c0 <gpio_hal_pin_set+0x78>
     3c8:	82 2b       	or	r24, r18
     3ca:	80 83       	st	Z, r24
	return err;
}

uint32_t gpio_hal_pin_set(volatile uint8_t *port, uint8_t pin, uint8_t value)
{
	uint32_t err=NO_ERROR;
     3cc:	60 e0       	ldi	r22, 0x00	; 0
     3ce:	70 e0       	ldi	r23, 0x00	; 0
     3d0:	cb 01       	movw	r24, r22
     3d2:	08 95       	ret
		{
			*port |= (1 << pin);
		}
		else
		{
			*port &= ~(1 << pin);
     3d4:	20 81       	ld	r18, Z
     3d6:	81 e0       	ldi	r24, 0x01	; 1
     3d8:	90 e0       	ldi	r25, 0x00	; 0
     3da:	02 c0       	rjmp	.+4      	; 0x3e0 <gpio_hal_pin_set+0x98>
     3dc:	88 0f       	add	r24, r24
     3de:	99 1f       	adc	r25, r25
     3e0:	6a 95       	dec	r22
     3e2:	e2 f7       	brpl	.-8      	; 0x3dc <gpio_hal_pin_set+0x94>
     3e4:	80 95       	com	r24
     3e6:	82 23       	and	r24, r18
     3e8:	80 83       	st	Z, r24
	return err;
}

uint32_t gpio_hal_pin_set(volatile uint8_t *port, uint8_t pin, uint8_t value)
{
	uint32_t err=NO_ERROR;
     3ea:	60 e0       	ldi	r22, 0x00	; 0
     3ec:	70 e0       	ldi	r23, 0x00	; 0
     3ee:	cb 01       	movw	r24, r22
     3f0:	08 95       	ret
	do 
	{	
		if (port==NULL)
		{
			err=NULL_ERROR;
     3f2:	61 e0       	ldi	r22, 0x01	; 1
     3f4:	70 e0       	ldi	r23, 0x00	; 0
     3f6:	80 e0       	ldi	r24, 0x00	; 0
     3f8:	90 e0       	ldi	r25, 0x00	; 0
     3fa:	08 95       	ret
			break;
		}
		if (*port!=PORTA && *port!=PORTB && *port!=PORTC && *port!=PORTD && *port!=PORTE && *port!=PORTF && *port!=PORTG && *port!=PORTH && *port!=PORTJ && *port!=PORTK && *port!=PORTL)
		{
			err=PORT_ERROR;
     3fc:	62 e0       	ldi	r22, 0x02	; 2
     3fe:	70 e0       	ldi	r23, 0x00	; 0
     400:	80 e0       	ldi	r24, 0x00	; 0
     402:	90 e0       	ldi	r25, 0x00	; 0
     404:	08 95       	ret
			break;
		}
		
		if (pin>7)
		{
			err=PIN_ERROR;
     406:	63 e0       	ldi	r22, 0x03	; 3
     408:	70 e0       	ldi	r23, 0x00	; 0
     40a:	80 e0       	ldi	r24, 0x00	; 0
     40c:	90 e0       	ldi	r25, 0x00	; 0
		{
			*port &= ~(1 << pin);
		}
	} while (0);
	return err;
}
     40e:	08 95       	ret

00000410 <gpio_hal_pin_toggle>:

uint32_t gpio_hal_pin_toggle(volatile uint8_t *port, uint8_t pin)
{
     410:	fc 01       	movw	r30, r24
	uint32_t err=NO_ERROR;
	do
	{
		if (port==NULL)
     412:	89 2b       	or	r24, r25
     414:	09 f4       	brne	.+2      	; 0x418 <gpio_hal_pin_toggle+0x8>
     416:	40 c0       	rjmp	.+128    	; 0x498 <gpio_hal_pin_toggle+0x88>
		{
			err=NULL_ERROR;
			break;
		}
		if (*port!=PORTA && *port!=PORTB && *port!=PORTC && *port!=PORTD && *port!=PORTE && *port!=PORTF && *port!=PORTG && *port!=PORTH && *port!=PORTJ && *port!=PORTK && *port!=PORTL)
     418:	90 81       	ld	r25, Z
     41a:	82 b1       	in	r24, 0x02	; 2
     41c:	98 17       	cp	r25, r24
     41e:	61 f1       	breq	.+88     	; 0x478 <gpio_hal_pin_toggle+0x68>
     420:	90 81       	ld	r25, Z
     422:	85 b1       	in	r24, 0x05	; 5
     424:	98 17       	cp	r25, r24
     426:	41 f1       	breq	.+80     	; 0x478 <gpio_hal_pin_toggle+0x68>
     428:	90 81       	ld	r25, Z
     42a:	88 b1       	in	r24, 0x08	; 8
     42c:	98 17       	cp	r25, r24
     42e:	21 f1       	breq	.+72     	; 0x478 <gpio_hal_pin_toggle+0x68>
     430:	90 81       	ld	r25, Z
     432:	8b b1       	in	r24, 0x0b	; 11
     434:	98 17       	cp	r25, r24
     436:	01 f1       	breq	.+64     	; 0x478 <gpio_hal_pin_toggle+0x68>
     438:	90 81       	ld	r25, Z
     43a:	8e b1       	in	r24, 0x0e	; 14
     43c:	98 17       	cp	r25, r24
     43e:	e1 f0       	breq	.+56     	; 0x478 <gpio_hal_pin_toggle+0x68>
     440:	90 81       	ld	r25, Z
     442:	81 b3       	in	r24, 0x11	; 17
     444:	98 17       	cp	r25, r24
     446:	c1 f0       	breq	.+48     	; 0x478 <gpio_hal_pin_toggle+0x68>
     448:	90 81       	ld	r25, Z
     44a:	84 b3       	in	r24, 0x14	; 20
     44c:	98 17       	cp	r25, r24
     44e:	a1 f0       	breq	.+40     	; 0x478 <gpio_hal_pin_toggle+0x68>
     450:	90 81       	ld	r25, Z
     452:	80 91 02 01 	lds	r24, 0x0102	; 0x800102 <__TEXT_REGION_LENGTH__+0x700102>
     456:	98 17       	cp	r25, r24
     458:	79 f0       	breq	.+30     	; 0x478 <gpio_hal_pin_toggle+0x68>
     45a:	90 81       	ld	r25, Z
     45c:	80 91 05 01 	lds	r24, 0x0105	; 0x800105 <__TEXT_REGION_LENGTH__+0x700105>
     460:	98 17       	cp	r25, r24
     462:	51 f0       	breq	.+20     	; 0x478 <gpio_hal_pin_toggle+0x68>
     464:	90 81       	ld	r25, Z
     466:	80 91 08 01 	lds	r24, 0x0108	; 0x800108 <__TEXT_REGION_LENGTH__+0x700108>
     46a:	98 17       	cp	r25, r24
     46c:	29 f0       	breq	.+10     	; 0x478 <gpio_hal_pin_toggle+0x68>
     46e:	90 81       	ld	r25, Z
     470:	80 91 0b 01 	lds	r24, 0x010B	; 0x80010b <__TEXT_REGION_LENGTH__+0x70010b>
     474:	98 13       	cpse	r25, r24
     476:	15 c0       	rjmp	.+42     	; 0x4a2 <gpio_hal_pin_toggle+0x92>
		{
			err=PORT_ERROR;
			break;
		}
		
		if (pin>7)
     478:	68 30       	cpi	r22, 0x08	; 8
     47a:	c0 f4       	brcc	.+48     	; 0x4ac <gpio_hal_pin_toggle+0x9c>
		{
			err=PIN_ERROR;
			break;
		}
		*port ^= (1 << pin);
     47c:	20 81       	ld	r18, Z
     47e:	81 e0       	ldi	r24, 0x01	; 1
     480:	90 e0       	ldi	r25, 0x00	; 0
     482:	02 c0       	rjmp	.+4      	; 0x488 <gpio_hal_pin_toggle+0x78>
     484:	88 0f       	add	r24, r24
     486:	99 1f       	adc	r25, r25
     488:	6a 95       	dec	r22
     48a:	e2 f7       	brpl	.-8      	; 0x484 <gpio_hal_pin_toggle+0x74>
     48c:	82 27       	eor	r24, r18
     48e:	80 83       	st	Z, r24
	return err;
}

uint32_t gpio_hal_pin_toggle(volatile uint8_t *port, uint8_t pin)
{
	uint32_t err=NO_ERROR;
     490:	60 e0       	ldi	r22, 0x00	; 0
     492:	70 e0       	ldi	r23, 0x00	; 0
     494:	cb 01       	movw	r24, r22
     496:	08 95       	ret
	do
	{
		if (port==NULL)
		{
			err=NULL_ERROR;
     498:	61 e0       	ldi	r22, 0x01	; 1
     49a:	70 e0       	ldi	r23, 0x00	; 0
     49c:	80 e0       	ldi	r24, 0x00	; 0
     49e:	90 e0       	ldi	r25, 0x00	; 0
     4a0:	08 95       	ret
			break;
		}
		if (*port!=PORTA && *port!=PORTB && *port!=PORTC && *port!=PORTD && *port!=PORTE && *port!=PORTF && *port!=PORTG && *port!=PORTH && *port!=PORTJ && *port!=PORTK && *port!=PORTL)
		{
			err=PORT_ERROR;
     4a2:	62 e0       	ldi	r22, 0x02	; 2
     4a4:	70 e0       	ldi	r23, 0x00	; 0
     4a6:	80 e0       	ldi	r24, 0x00	; 0
     4a8:	90 e0       	ldi	r25, 0x00	; 0
     4aa:	08 95       	ret
			break;
		}
		
		if (pin>7)
		{
			err=PIN_ERROR;
     4ac:	63 e0       	ldi	r22, 0x03	; 3
     4ae:	70 e0       	ldi	r23, 0x00	; 0
     4b0:	80 e0       	ldi	r24, 0x00	; 0
     4b2:	90 e0       	ldi	r25, 0x00	; 0
			break;
		}
		*port ^= (1 << pin);
	} while (0);
	return err;
}
     4b4:	08 95       	ret

000004b6 <gpio_hal_pin_read>:

uint8_t gpio_hal_pin_read(volatile uint8_t *port, uint8_t pin)
{
	return *port & (1 << pin);
     4b6:	fc 01       	movw	r30, r24
     4b8:	20 81       	ld	r18, Z
     4ba:	81 e0       	ldi	r24, 0x01	; 1
     4bc:	90 e0       	ldi	r25, 0x00	; 0
     4be:	02 c0       	rjmp	.+4      	; 0x4c4 <gpio_hal_pin_read+0xe>
     4c0:	88 0f       	add	r24, r24
     4c2:	99 1f       	adc	r25, r25
     4c4:	6a 95       	dec	r22
     4c6:	e2 f7       	brpl	.-8      	; 0x4c0 <gpio_hal_pin_read+0xa>
}
     4c8:	82 23       	and	r24, r18
     4ca:	08 95       	ret

000004cc <gpio_hal_pin_config_interrupt>:

uint32_t gpio_hal_pin_config_interrupt(volatile uint8_t *port, uint8_t pin, sense sensetype, interrupt_callback_t callback)
{	
     4cc:	cf 93       	push	r28
     4ce:	df 93       	push	r29
     4d0:	fc 01       	movw	r30, r24
	uint32_t err=NO_ERROR;
	uint8_t bit;
	volatile uint8_t *reg;
	do
	{
		if (port==NULL)
     4d2:	89 2b       	or	r24, r25
     4d4:	09 f4       	brne	.+2      	; 0x4d8 <gpio_hal_pin_config_interrupt+0xc>
     4d6:	d6 c0       	rjmp	.+428    	; 0x684 <gpio_hal_pin_config_interrupt+0x1b8>
		{
			err=NULL_ERROR;
			break;
		}
		if (*port!=PORTD && *port!=PORTE)
     4d8:	90 81       	ld	r25, Z
     4da:	8b b1       	in	r24, 0x0b	; 11
     4dc:	98 17       	cp	r25, r24
     4de:	d1 f1       	breq	.+116    	; 0x554 <gpio_hal_pin_config_interrupt+0x88>
     4e0:	90 81       	ld	r25, Z
     4e2:	8e b1       	in	r24, 0x0e	; 14
     4e4:	98 17       	cp	r25, r24
     4e6:	b1 f1       	breq	.+108    	; 0x554 <gpio_hal_pin_config_interrupt+0x88>
		{
			if (*port==PORTA || *port==PORTB || *port==PORTC || *port==PORTF || *port==PORTG || *port==PORTH || *port==PORTJ || *port==PORTK || *port==PORTL)
     4e8:	90 81       	ld	r25, Z
     4ea:	82 b1       	in	r24, 0x02	; 2
     4ec:	98 17       	cp	r25, r24
     4ee:	09 f4       	brne	.+2      	; 0x4f2 <gpio_hal_pin_config_interrupt+0x26>
     4f0:	ce c0       	rjmp	.+412    	; 0x68e <gpio_hal_pin_config_interrupt+0x1c2>
     4f2:	90 81       	ld	r25, Z
     4f4:	85 b1       	in	r24, 0x05	; 5
     4f6:	98 17       	cp	r25, r24
     4f8:	09 f4       	brne	.+2      	; 0x4fc <gpio_hal_pin_config_interrupt+0x30>
     4fa:	ce c0       	rjmp	.+412    	; 0x698 <gpio_hal_pin_config_interrupt+0x1cc>
     4fc:	90 81       	ld	r25, Z
     4fe:	88 b1       	in	r24, 0x08	; 8
     500:	98 17       	cp	r25, r24
     502:	09 f4       	brne	.+2      	; 0x506 <gpio_hal_pin_config_interrupt+0x3a>
     504:	ce c0       	rjmp	.+412    	; 0x6a2 <gpio_hal_pin_config_interrupt+0x1d6>
     506:	90 81       	ld	r25, Z
     508:	81 b3       	in	r24, 0x11	; 17
     50a:	98 17       	cp	r25, r24
     50c:	09 f4       	brne	.+2      	; 0x510 <gpio_hal_pin_config_interrupt+0x44>
     50e:	ce c0       	rjmp	.+412    	; 0x6ac <gpio_hal_pin_config_interrupt+0x1e0>
     510:	90 81       	ld	r25, Z
     512:	84 b3       	in	r24, 0x14	; 20
     514:	98 17       	cp	r25, r24
     516:	09 f4       	brne	.+2      	; 0x51a <gpio_hal_pin_config_interrupt+0x4e>
     518:	ce c0       	rjmp	.+412    	; 0x6b6 <gpio_hal_pin_config_interrupt+0x1ea>
     51a:	90 81       	ld	r25, Z
     51c:	80 91 02 01 	lds	r24, 0x0102	; 0x800102 <__TEXT_REGION_LENGTH__+0x700102>
     520:	98 17       	cp	r25, r24
     522:	09 f4       	brne	.+2      	; 0x526 <gpio_hal_pin_config_interrupt+0x5a>
     524:	cd c0       	rjmp	.+410    	; 0x6c0 <gpio_hal_pin_config_interrupt+0x1f4>
     526:	90 81       	ld	r25, Z
     528:	80 91 05 01 	lds	r24, 0x0105	; 0x800105 <__TEXT_REGION_LENGTH__+0x700105>
     52c:	98 17       	cp	r25, r24
     52e:	09 f4       	brne	.+2      	; 0x532 <gpio_hal_pin_config_interrupt+0x66>
     530:	cc c0       	rjmp	.+408    	; 0x6ca <gpio_hal_pin_config_interrupt+0x1fe>
     532:	90 81       	ld	r25, Z
     534:	80 91 08 01 	lds	r24, 0x0108	; 0x800108 <__TEXT_REGION_LENGTH__+0x700108>
     538:	98 17       	cp	r25, r24
     53a:	09 f4       	brne	.+2      	; 0x53e <gpio_hal_pin_config_interrupt+0x72>
     53c:	cb c0       	rjmp	.+406    	; 0x6d4 <gpio_hal_pin_config_interrupt+0x208>
     53e:	90 81       	ld	r25, Z
     540:	80 91 0b 01 	lds	r24, 0x010B	; 0x80010b <__TEXT_REGION_LENGTH__+0x70010b>
     544:	98 17       	cp	r25, r24
     546:	09 f4       	brne	.+2      	; 0x54a <gpio_hal_pin_config_interrupt+0x7e>
     548:	ca c0       	rjmp	.+404    	; 0x6de <gpio_hal_pin_config_interrupt+0x212>
				err=PIN_NOT_SUPPORT;
				break;
			}
			else
			{
				err=PORT_ERROR;
     54a:	62 e0       	ldi	r22, 0x02	; 2
     54c:	70 e0       	ldi	r23, 0x00	; 0
     54e:	80 e0       	ldi	r24, 0x00	; 0
     550:	90 e0       	ldi	r25, 0x00	; 0
     552:	e2 c0       	rjmp	.+452    	; 0x718 <gpio_hal_pin_config_interrupt+0x24c>
				break;
			}
		}
		
		if (pin>7)
     554:	68 30       	cpi	r22, 0x08	; 8
     556:	08 f0       	brcs	.+2      	; 0x55a <gpio_hal_pin_config_interrupt+0x8e>
     558:	c7 c0       	rjmp	.+398    	; 0x6e8 <gpio_hal_pin_config_interrupt+0x21c>
		{
			err=PIN_ERROR;
			break;
		}
		if (*port == PORTD && pin<4)
     55a:	90 81       	ld	r25, Z
     55c:	8b b1       	in	r24, 0x0b	; 11
     55e:	98 13       	cpse	r25, r24
     560:	03 c0       	rjmp	.+6      	; 0x568 <gpio_hal_pin_config_interrupt+0x9c>
     562:	64 30       	cpi	r22, 0x04	; 4
     564:	68 f0       	brcs	.+26     	; 0x580 <gpio_hal_pin_config_interrupt+0xb4>
     566:	cf c0       	rjmp	.+414    	; 0x706 <gpio_hal_pin_config_interrupt+0x23a>
		{
			reg = &EICRA;
			bit = pin;
		}
		else if (*port == PORTE && pin>3)
     568:	90 81       	ld	r25, Z
     56a:	8e b1       	in	r24, 0x0e	; 14
     56c:	98 13       	cpse	r25, r24
     56e:	c1 c0       	rjmp	.+386    	; 0x6f2 <gpio_hal_pin_config_interrupt+0x226>
     570:	64 30       	cpi	r22, 0x04	; 4
     572:	08 f4       	brcc	.+2      	; 0x576 <gpio_hal_pin_config_interrupt+0xaa>
     574:	c3 c0       	rjmp	.+390    	; 0x6fc <gpio_hal_pin_config_interrupt+0x230>
		{
			reg = &EICRB;
			bit = pin-4;
     576:	8c ef       	ldi	r24, 0xFC	; 252
     578:	86 0f       	add	r24, r22
			reg = &EICRA;
			bit = pin;
		}
		else if (*port == PORTE && pin>3)
		{
			reg = &EICRB;
     57a:	ea e6       	ldi	r30, 0x6A	; 106
     57c:	f0 e0       	ldi	r31, 0x00	; 0
			bit = pin-4;
     57e:	03 c0       	rjmp	.+6      	; 0x586 <gpio_hal_pin_config_interrupt+0xba>
			break;
		}
		if (*port == PORTD && pin<4)
		{
			reg = &EICRA;
			bit = pin;
     580:	86 2f       	mov	r24, r22
			err=PIN_ERROR;
			break;
		}
		if (*port == PORTD && pin<4)
		{
			reg = &EICRA;
     582:	e9 e6       	ldi	r30, 0x69	; 105
     584:	f0 e0       	ldi	r31, 0x00	; 0
		else
		{
			err=PIN_NOT_SUPPORT;
			break;
		}
		switch (sensetype)
     586:	41 30       	cpi	r20, 0x01	; 1
     588:	f9 f0       	breq	.+62     	; 0x5c8 <gpio_hal_pin_config_interrupt+0xfc>
     58a:	30 f0       	brcs	.+12     	; 0x598 <gpio_hal_pin_config_interrupt+0xcc>
     58c:	42 30       	cpi	r20, 0x02	; 2
     58e:	b1 f1       	breq	.+108    	; 0x5fc <gpio_hal_pin_config_interrupt+0x130>
     590:	43 30       	cpi	r20, 0x03	; 3
     592:	09 f4       	brne	.+2      	; 0x596 <gpio_hal_pin_config_interrupt+0xca>
     594:	4e c0       	rjmp	.+156    	; 0x632 <gpio_hal_pin_config_interrupt+0x166>
     596:	63 c0       	rjmp	.+198    	; 0x65e <gpio_hal_pin_config_interrupt+0x192>
		{
			case low:
			{
				(*reg) &= ~(1 << (2 * bit + 1)) & ~(1 << (2 * bit));
     598:	70 81       	ld	r23, Z
     59a:	90 e0       	ldi	r25, 0x00	; 0
     59c:	88 0f       	add	r24, r24
     59e:	99 1f       	adc	r25, r25
     5a0:	dc 01       	movw	r26, r24
     5a2:	11 96       	adiw	r26, 0x01	; 1
     5a4:	41 e0       	ldi	r20, 0x01	; 1
     5a6:	50 e0       	ldi	r21, 0x00	; 0
     5a8:	ea 01       	movw	r28, r20
     5aa:	02 c0       	rjmp	.+4      	; 0x5b0 <gpio_hal_pin_config_interrupt+0xe4>
     5ac:	cc 0f       	add	r28, r28
     5ae:	dd 1f       	adc	r29, r29
     5b0:	aa 95       	dec	r26
     5b2:	e2 f7       	brpl	.-8      	; 0x5ac <gpio_hal_pin_config_interrupt+0xe0>
     5b4:	02 c0       	rjmp	.+4      	; 0x5ba <gpio_hal_pin_config_interrupt+0xee>
     5b6:	44 0f       	add	r20, r20
     5b8:	55 1f       	adc	r21, r21
     5ba:	8a 95       	dec	r24
     5bc:	e2 f7       	brpl	.-8      	; 0x5b6 <gpio_hal_pin_config_interrupt+0xea>
     5be:	4c 2b       	or	r20, r28
     5c0:	40 95       	com	r20
     5c2:	47 23       	and	r20, r23
     5c4:	40 83       	st	Z, r20
				break;
     5c6:	4b c0       	rjmp	.+150    	; 0x65e <gpio_hal_pin_config_interrupt+0x192>
			}
			case change:
			{
				(*reg) |= (1 << (2 * bit));
     5c8:	70 81       	ld	r23, Z
     5ca:	90 e0       	ldi	r25, 0x00	; 0
     5cc:	88 0f       	add	r24, r24
     5ce:	99 1f       	adc	r25, r25
     5d0:	41 e0       	ldi	r20, 0x01	; 1
     5d2:	50 e0       	ldi	r21, 0x00	; 0
     5d4:	da 01       	movw	r26, r20
     5d6:	08 2e       	mov	r0, r24
     5d8:	02 c0       	rjmp	.+4      	; 0x5de <gpio_hal_pin_config_interrupt+0x112>
     5da:	aa 0f       	add	r26, r26
     5dc:	bb 1f       	adc	r27, r27
     5de:	0a 94       	dec	r0
     5e0:	e2 f7       	brpl	.-8      	; 0x5da <gpio_hal_pin_config_interrupt+0x10e>
     5e2:	a7 2b       	or	r26, r23
     5e4:	a0 83       	st	Z, r26
				(*reg) &= ~(1 << (2 * bit + 1));
     5e6:	70 81       	ld	r23, Z
     5e8:	01 96       	adiw	r24, 0x01	; 1
     5ea:	02 c0       	rjmp	.+4      	; 0x5f0 <gpio_hal_pin_config_interrupt+0x124>
     5ec:	44 0f       	add	r20, r20
     5ee:	55 1f       	adc	r21, r21
     5f0:	8a 95       	dec	r24
     5f2:	e2 f7       	brpl	.-8      	; 0x5ec <gpio_hal_pin_config_interrupt+0x120>
     5f4:	40 95       	com	r20
     5f6:	47 23       	and	r20, r23
     5f8:	40 83       	st	Z, r20
				break;
     5fa:	31 c0       	rjmp	.+98     	; 0x65e <gpio_hal_pin_config_interrupt+0x192>
			}
			case falling:
			{
				(*reg) |= (1 << (2 * bit + 1));
     5fc:	70 81       	ld	r23, Z
     5fe:	90 e0       	ldi	r25, 0x00	; 0
     600:	88 0f       	add	r24, r24
     602:	99 1f       	adc	r25, r25
     604:	dc 01       	movw	r26, r24
     606:	11 96       	adiw	r26, 0x01	; 1
     608:	41 e0       	ldi	r20, 0x01	; 1
     60a:	50 e0       	ldi	r21, 0x00	; 0
     60c:	ea 01       	movw	r28, r20
     60e:	02 c0       	rjmp	.+4      	; 0x614 <gpio_hal_pin_config_interrupt+0x148>
     610:	cc 0f       	add	r28, r28
     612:	dd 1f       	adc	r29, r29
     614:	aa 95       	dec	r26
     616:	e2 f7       	brpl	.-8      	; 0x610 <gpio_hal_pin_config_interrupt+0x144>
     618:	de 01       	movw	r26, r28
     61a:	a7 2b       	or	r26, r23
     61c:	a0 83       	st	Z, r26
				(*reg) &= ~(1 << (2 * bit));
     61e:	90 81       	ld	r25, Z
     620:	02 c0       	rjmp	.+4      	; 0x626 <gpio_hal_pin_config_interrupt+0x15a>
     622:	44 0f       	add	r20, r20
     624:	55 1f       	adc	r21, r21
     626:	8a 95       	dec	r24
     628:	e2 f7       	brpl	.-8      	; 0x622 <gpio_hal_pin_config_interrupt+0x156>
     62a:	40 95       	com	r20
     62c:	49 23       	and	r20, r25
     62e:	40 83       	st	Z, r20
				break;
     630:	16 c0       	rjmp	.+44     	; 0x65e <gpio_hal_pin_config_interrupt+0x192>
			}
			case rising:
			{
				(*reg) |= (1 << (2 * bit + 1)) | (1 << (2 * bit));
     632:	70 81       	ld	r23, Z
     634:	90 e0       	ldi	r25, 0x00	; 0
     636:	88 0f       	add	r24, r24
     638:	99 1f       	adc	r25, r25
     63a:	dc 01       	movw	r26, r24
     63c:	11 96       	adiw	r26, 0x01	; 1
     63e:	41 e0       	ldi	r20, 0x01	; 1
     640:	50 e0       	ldi	r21, 0x00	; 0
     642:	ea 01       	movw	r28, r20
     644:	02 c0       	rjmp	.+4      	; 0x64a <gpio_hal_pin_config_interrupt+0x17e>
     646:	cc 0f       	add	r28, r28
     648:	dd 1f       	adc	r29, r29
     64a:	aa 95       	dec	r26
     64c:	e2 f7       	brpl	.-8      	; 0x646 <gpio_hal_pin_config_interrupt+0x17a>
     64e:	02 c0       	rjmp	.+4      	; 0x654 <gpio_hal_pin_config_interrupt+0x188>
     650:	44 0f       	add	r20, r20
     652:	55 1f       	adc	r21, r21
     654:	8a 95       	dec	r24
     656:	e2 f7       	brpl	.-8      	; 0x650 <gpio_hal_pin_config_interrupt+0x184>
     658:	47 2b       	or	r20, r23
     65a:	4c 2b       	or	r20, r28
     65c:	40 83       	st	Z, r20
				break;
			}
		}
		EIMSK |= (1 << pin);
     65e:	4d b3       	in	r20, 0x1d	; 29
     660:	81 e0       	ldi	r24, 0x01	; 1
     662:	90 e0       	ldi	r25, 0x00	; 0
     664:	02 c0       	rjmp	.+4      	; 0x66a <gpio_hal_pin_config_interrupt+0x19e>
     666:	88 0f       	add	r24, r24
     668:	99 1f       	adc	r25, r25
     66a:	6a 95       	dec	r22
     66c:	e2 f7       	brpl	.-8      	; 0x666 <gpio_hal_pin_config_interrupt+0x19a>
     66e:	84 2b       	or	r24, r20
     670:	8d bb       	out	0x1d, r24	; 29
		sei();
     672:	78 94       	sei
		g_interrupt_callback=callback;
     674:	30 93 07 02 	sts	0x0207, r19	; 0x800207 <__data_end+0x1>
     678:	20 93 06 02 	sts	0x0206, r18	; 0x800206 <__data_end>
	return *port & (1 << pin);
}

uint32_t gpio_hal_pin_config_interrupt(volatile uint8_t *port, uint8_t pin, sense sensetype, interrupt_callback_t callback)
{	
	uint32_t err=NO_ERROR;
     67c:	60 e0       	ldi	r22, 0x00	; 0
     67e:	70 e0       	ldi	r23, 0x00	; 0
     680:	cb 01       	movw	r24, r22
     682:	4a c0       	rjmp	.+148    	; 0x718 <gpio_hal_pin_config_interrupt+0x24c>
	volatile uint8_t *reg;
	do
	{
		if (port==NULL)
		{
			err=NULL_ERROR;
     684:	61 e0       	ldi	r22, 0x01	; 1
     686:	70 e0       	ldi	r23, 0x00	; 0
     688:	80 e0       	ldi	r24, 0x00	; 0
     68a:	90 e0       	ldi	r25, 0x00	; 0
     68c:	45 c0       	rjmp	.+138    	; 0x718 <gpio_hal_pin_config_interrupt+0x24c>
		}
		if (*port!=PORTD && *port!=PORTE)
		{
			if (*port==PORTA || *port==PORTB || *port==PORTC || *port==PORTF || *port==PORTG || *port==PORTH || *port==PORTJ || *port==PORTK || *port==PORTL)
			{
				err=PIN_NOT_SUPPORT;
     68e:	64 e0       	ldi	r22, 0x04	; 4
     690:	70 e0       	ldi	r23, 0x00	; 0
     692:	80 e0       	ldi	r24, 0x00	; 0
     694:	90 e0       	ldi	r25, 0x00	; 0
     696:	40 c0       	rjmp	.+128    	; 0x718 <gpio_hal_pin_config_interrupt+0x24c>
     698:	64 e0       	ldi	r22, 0x04	; 4
     69a:	70 e0       	ldi	r23, 0x00	; 0
     69c:	80 e0       	ldi	r24, 0x00	; 0
     69e:	90 e0       	ldi	r25, 0x00	; 0
     6a0:	3b c0       	rjmp	.+118    	; 0x718 <gpio_hal_pin_config_interrupt+0x24c>
     6a2:	64 e0       	ldi	r22, 0x04	; 4
     6a4:	70 e0       	ldi	r23, 0x00	; 0
     6a6:	80 e0       	ldi	r24, 0x00	; 0
     6a8:	90 e0       	ldi	r25, 0x00	; 0
     6aa:	36 c0       	rjmp	.+108    	; 0x718 <gpio_hal_pin_config_interrupt+0x24c>
     6ac:	64 e0       	ldi	r22, 0x04	; 4
     6ae:	70 e0       	ldi	r23, 0x00	; 0
     6b0:	80 e0       	ldi	r24, 0x00	; 0
     6b2:	90 e0       	ldi	r25, 0x00	; 0
     6b4:	31 c0       	rjmp	.+98     	; 0x718 <gpio_hal_pin_config_interrupt+0x24c>
     6b6:	64 e0       	ldi	r22, 0x04	; 4
     6b8:	70 e0       	ldi	r23, 0x00	; 0
     6ba:	80 e0       	ldi	r24, 0x00	; 0
     6bc:	90 e0       	ldi	r25, 0x00	; 0
     6be:	2c c0       	rjmp	.+88     	; 0x718 <gpio_hal_pin_config_interrupt+0x24c>
     6c0:	64 e0       	ldi	r22, 0x04	; 4
     6c2:	70 e0       	ldi	r23, 0x00	; 0
     6c4:	80 e0       	ldi	r24, 0x00	; 0
     6c6:	90 e0       	ldi	r25, 0x00	; 0
     6c8:	27 c0       	rjmp	.+78     	; 0x718 <gpio_hal_pin_config_interrupt+0x24c>
     6ca:	64 e0       	ldi	r22, 0x04	; 4
     6cc:	70 e0       	ldi	r23, 0x00	; 0
     6ce:	80 e0       	ldi	r24, 0x00	; 0
     6d0:	90 e0       	ldi	r25, 0x00	; 0
     6d2:	22 c0       	rjmp	.+68     	; 0x718 <gpio_hal_pin_config_interrupt+0x24c>
     6d4:	64 e0       	ldi	r22, 0x04	; 4
     6d6:	70 e0       	ldi	r23, 0x00	; 0
     6d8:	80 e0       	ldi	r24, 0x00	; 0
     6da:	90 e0       	ldi	r25, 0x00	; 0
     6dc:	1d c0       	rjmp	.+58     	; 0x718 <gpio_hal_pin_config_interrupt+0x24c>
     6de:	64 e0       	ldi	r22, 0x04	; 4
     6e0:	70 e0       	ldi	r23, 0x00	; 0
     6e2:	80 e0       	ldi	r24, 0x00	; 0
     6e4:	90 e0       	ldi	r25, 0x00	; 0
     6e6:	18 c0       	rjmp	.+48     	; 0x718 <gpio_hal_pin_config_interrupt+0x24c>
			}
		}
		
		if (pin>7)
		{
			err=PIN_ERROR;
     6e8:	63 e0       	ldi	r22, 0x03	; 3
     6ea:	70 e0       	ldi	r23, 0x00	; 0
     6ec:	80 e0       	ldi	r24, 0x00	; 0
     6ee:	90 e0       	ldi	r25, 0x00	; 0
     6f0:	13 c0       	rjmp	.+38     	; 0x718 <gpio_hal_pin_config_interrupt+0x24c>
			reg = &EICRB;
			bit = pin-4;
		}
		else
		{
			err=PIN_NOT_SUPPORT;
     6f2:	64 e0       	ldi	r22, 0x04	; 4
     6f4:	70 e0       	ldi	r23, 0x00	; 0
     6f6:	80 e0       	ldi	r24, 0x00	; 0
     6f8:	90 e0       	ldi	r25, 0x00	; 0
     6fa:	0e c0       	rjmp	.+28     	; 0x718 <gpio_hal_pin_config_interrupt+0x24c>
     6fc:	64 e0       	ldi	r22, 0x04	; 4
     6fe:	70 e0       	ldi	r23, 0x00	; 0
     700:	80 e0       	ldi	r24, 0x00	; 0
     702:	90 e0       	ldi	r25, 0x00	; 0
     704:	09 c0       	rjmp	.+18     	; 0x718 <gpio_hal_pin_config_interrupt+0x24c>
		if (*port == PORTD && pin<4)
		{
			reg = &EICRA;
			bit = pin;
		}
		else if (*port == PORTE && pin>3)
     706:	90 81       	ld	r25, Z
     708:	8e b1       	in	r24, 0x0e	; 14
     70a:	98 17       	cp	r25, r24
     70c:	09 f4       	brne	.+2      	; 0x710 <gpio_hal_pin_config_interrupt+0x244>
     70e:	33 cf       	rjmp	.-410    	; 0x576 <gpio_hal_pin_config_interrupt+0xaa>
			reg = &EICRB;
			bit = pin-4;
		}
		else
		{
			err=PIN_NOT_SUPPORT;
     710:	64 e0       	ldi	r22, 0x04	; 4
     712:	70 e0       	ldi	r23, 0x00	; 0
     714:	80 e0       	ldi	r24, 0x00	; 0
     716:	90 e0       	ldi	r25, 0x00	; 0
		EIMSK |= (1 << pin);
		sei();
		g_interrupt_callback=callback;
	} while (0);
	return err;
}
     718:	df 91       	pop	r29
     71a:	cf 91       	pop	r28
     71c:	08 95       	ret

0000071e <__vector_1>:

ISR(INT0_vect)
{
     71e:	1f 92       	push	r1
     720:	0f 92       	push	r0
     722:	0f b6       	in	r0, 0x3f	; 63
     724:	0f 92       	push	r0
     726:	11 24       	eor	r1, r1
     728:	0b b6       	in	r0, 0x3b	; 59
     72a:	0f 92       	push	r0
     72c:	2f 93       	push	r18
     72e:	3f 93       	push	r19
     730:	4f 93       	push	r20
     732:	5f 93       	push	r21
     734:	6f 93       	push	r22
     736:	7f 93       	push	r23
     738:	8f 93       	push	r24
     73a:	9f 93       	push	r25
     73c:	af 93       	push	r26
     73e:	bf 93       	push	r27
     740:	ef 93       	push	r30
     742:	ff 93       	push	r31
	if (g_interrupt_callback != NULL)
     744:	e0 91 06 02 	lds	r30, 0x0206	; 0x800206 <__data_end>
     748:	f0 91 07 02 	lds	r31, 0x0207	; 0x800207 <__data_end+0x1>
     74c:	30 97       	sbiw	r30, 0x00	; 0
     74e:	11 f0       	breq	.+4      	; 0x754 <__vector_1+0x36>
	{
		g_interrupt_callback(0);
     750:	80 e0       	ldi	r24, 0x00	; 0
     752:	19 95       	eicall
	}
}
     754:	ff 91       	pop	r31
     756:	ef 91       	pop	r30
     758:	bf 91       	pop	r27
     75a:	af 91       	pop	r26
     75c:	9f 91       	pop	r25
     75e:	8f 91       	pop	r24
     760:	7f 91       	pop	r23
     762:	6f 91       	pop	r22
     764:	5f 91       	pop	r21
     766:	4f 91       	pop	r20
     768:	3f 91       	pop	r19
     76a:	2f 91       	pop	r18
     76c:	0f 90       	pop	r0
     76e:	0b be       	out	0x3b, r0	; 59
     770:	0f 90       	pop	r0
     772:	0f be       	out	0x3f, r0	; 63
     774:	0f 90       	pop	r0
     776:	1f 90       	pop	r1
     778:	18 95       	reti

0000077a <__vector_2>:

ISR(INT1_vect)
{
     77a:	1f 92       	push	r1
     77c:	0f 92       	push	r0
     77e:	0f b6       	in	r0, 0x3f	; 63
     780:	0f 92       	push	r0
     782:	11 24       	eor	r1, r1
     784:	0b b6       	in	r0, 0x3b	; 59
     786:	0f 92       	push	r0
     788:	2f 93       	push	r18
     78a:	3f 93       	push	r19
     78c:	4f 93       	push	r20
     78e:	5f 93       	push	r21
     790:	6f 93       	push	r22
     792:	7f 93       	push	r23
     794:	8f 93       	push	r24
     796:	9f 93       	push	r25
     798:	af 93       	push	r26
     79a:	bf 93       	push	r27
     79c:	ef 93       	push	r30
     79e:	ff 93       	push	r31
	if (g_interrupt_callback != NULL)
     7a0:	e0 91 06 02 	lds	r30, 0x0206	; 0x800206 <__data_end>
     7a4:	f0 91 07 02 	lds	r31, 0x0207	; 0x800207 <__data_end+0x1>
     7a8:	30 97       	sbiw	r30, 0x00	; 0
     7aa:	11 f0       	breq	.+4      	; 0x7b0 <__vector_2+0x36>
	{
		g_interrupt_callback(1);
     7ac:	81 e0       	ldi	r24, 0x01	; 1
     7ae:	19 95       	eicall
	}
}
     7b0:	ff 91       	pop	r31
     7b2:	ef 91       	pop	r30
     7b4:	bf 91       	pop	r27
     7b6:	af 91       	pop	r26
     7b8:	9f 91       	pop	r25
     7ba:	8f 91       	pop	r24
     7bc:	7f 91       	pop	r23
     7be:	6f 91       	pop	r22
     7c0:	5f 91       	pop	r21
     7c2:	4f 91       	pop	r20
     7c4:	3f 91       	pop	r19
     7c6:	2f 91       	pop	r18
     7c8:	0f 90       	pop	r0
     7ca:	0b be       	out	0x3b, r0	; 59
     7cc:	0f 90       	pop	r0
     7ce:	0f be       	out	0x3f, r0	; 63
     7d0:	0f 90       	pop	r0
     7d2:	1f 90       	pop	r1
     7d4:	18 95       	reti

000007d6 <__vector_3>:

ISR(INT2_vect)
{
     7d6:	1f 92       	push	r1
     7d8:	0f 92       	push	r0
     7da:	0f b6       	in	r0, 0x3f	; 63
     7dc:	0f 92       	push	r0
     7de:	11 24       	eor	r1, r1
     7e0:	0b b6       	in	r0, 0x3b	; 59
     7e2:	0f 92       	push	r0
     7e4:	2f 93       	push	r18
     7e6:	3f 93       	push	r19
     7e8:	4f 93       	push	r20
     7ea:	5f 93       	push	r21
     7ec:	6f 93       	push	r22
     7ee:	7f 93       	push	r23
     7f0:	8f 93       	push	r24
     7f2:	9f 93       	push	r25
     7f4:	af 93       	push	r26
     7f6:	bf 93       	push	r27
     7f8:	ef 93       	push	r30
     7fa:	ff 93       	push	r31
	if (g_interrupt_callback != NULL)
     7fc:	e0 91 06 02 	lds	r30, 0x0206	; 0x800206 <__data_end>
     800:	f0 91 07 02 	lds	r31, 0x0207	; 0x800207 <__data_end+0x1>
     804:	30 97       	sbiw	r30, 0x00	; 0
     806:	11 f0       	breq	.+4      	; 0x80c <__vector_3+0x36>
	{
		g_interrupt_callback(2);
     808:	82 e0       	ldi	r24, 0x02	; 2
     80a:	19 95       	eicall
	}
}
     80c:	ff 91       	pop	r31
     80e:	ef 91       	pop	r30
     810:	bf 91       	pop	r27
     812:	af 91       	pop	r26
     814:	9f 91       	pop	r25
     816:	8f 91       	pop	r24
     818:	7f 91       	pop	r23
     81a:	6f 91       	pop	r22
     81c:	5f 91       	pop	r21
     81e:	4f 91       	pop	r20
     820:	3f 91       	pop	r19
     822:	2f 91       	pop	r18
     824:	0f 90       	pop	r0
     826:	0b be       	out	0x3b, r0	; 59
     828:	0f 90       	pop	r0
     82a:	0f be       	out	0x3f, r0	; 63
     82c:	0f 90       	pop	r0
     82e:	1f 90       	pop	r1
     830:	18 95       	reti

00000832 <__vector_4>:

ISR(INT3_vect)
{
     832:	1f 92       	push	r1
     834:	0f 92       	push	r0
     836:	0f b6       	in	r0, 0x3f	; 63
     838:	0f 92       	push	r0
     83a:	11 24       	eor	r1, r1
     83c:	0b b6       	in	r0, 0x3b	; 59
     83e:	0f 92       	push	r0
     840:	2f 93       	push	r18
     842:	3f 93       	push	r19
     844:	4f 93       	push	r20
     846:	5f 93       	push	r21
     848:	6f 93       	push	r22
     84a:	7f 93       	push	r23
     84c:	8f 93       	push	r24
     84e:	9f 93       	push	r25
     850:	af 93       	push	r26
     852:	bf 93       	push	r27
     854:	ef 93       	push	r30
     856:	ff 93       	push	r31
	if (g_interrupt_callback != NULL)
     858:	e0 91 06 02 	lds	r30, 0x0206	; 0x800206 <__data_end>
     85c:	f0 91 07 02 	lds	r31, 0x0207	; 0x800207 <__data_end+0x1>
     860:	30 97       	sbiw	r30, 0x00	; 0
     862:	11 f0       	breq	.+4      	; 0x868 <__vector_4+0x36>
	{
		g_interrupt_callback(3);
     864:	83 e0       	ldi	r24, 0x03	; 3
     866:	19 95       	eicall
	}
}
     868:	ff 91       	pop	r31
     86a:	ef 91       	pop	r30
     86c:	bf 91       	pop	r27
     86e:	af 91       	pop	r26
     870:	9f 91       	pop	r25
     872:	8f 91       	pop	r24
     874:	7f 91       	pop	r23
     876:	6f 91       	pop	r22
     878:	5f 91       	pop	r21
     87a:	4f 91       	pop	r20
     87c:	3f 91       	pop	r19
     87e:	2f 91       	pop	r18
     880:	0f 90       	pop	r0
     882:	0b be       	out	0x3b, r0	; 59
     884:	0f 90       	pop	r0
     886:	0f be       	out	0x3f, r0	; 63
     888:	0f 90       	pop	r0
     88a:	1f 90       	pop	r1
     88c:	18 95       	reti

0000088e <__vector_5>:

ISR(INT4_vect)
{
     88e:	1f 92       	push	r1
     890:	0f 92       	push	r0
     892:	0f b6       	in	r0, 0x3f	; 63
     894:	0f 92       	push	r0
     896:	11 24       	eor	r1, r1
     898:	0b b6       	in	r0, 0x3b	; 59
     89a:	0f 92       	push	r0
     89c:	2f 93       	push	r18
     89e:	3f 93       	push	r19
     8a0:	4f 93       	push	r20
     8a2:	5f 93       	push	r21
     8a4:	6f 93       	push	r22
     8a6:	7f 93       	push	r23
     8a8:	8f 93       	push	r24
     8aa:	9f 93       	push	r25
     8ac:	af 93       	push	r26
     8ae:	bf 93       	push	r27
     8b0:	ef 93       	push	r30
     8b2:	ff 93       	push	r31
	if (g_interrupt_callback != NULL)
     8b4:	e0 91 06 02 	lds	r30, 0x0206	; 0x800206 <__data_end>
     8b8:	f0 91 07 02 	lds	r31, 0x0207	; 0x800207 <__data_end+0x1>
     8bc:	30 97       	sbiw	r30, 0x00	; 0
     8be:	11 f0       	breq	.+4      	; 0x8c4 <__vector_5+0x36>
	{
		g_interrupt_callback(4);
     8c0:	84 e0       	ldi	r24, 0x04	; 4
     8c2:	19 95       	eicall
	}
}
     8c4:	ff 91       	pop	r31
     8c6:	ef 91       	pop	r30
     8c8:	bf 91       	pop	r27
     8ca:	af 91       	pop	r26
     8cc:	9f 91       	pop	r25
     8ce:	8f 91       	pop	r24
     8d0:	7f 91       	pop	r23
     8d2:	6f 91       	pop	r22
     8d4:	5f 91       	pop	r21
     8d6:	4f 91       	pop	r20
     8d8:	3f 91       	pop	r19
     8da:	2f 91       	pop	r18
     8dc:	0f 90       	pop	r0
     8de:	0b be       	out	0x3b, r0	; 59
     8e0:	0f 90       	pop	r0
     8e2:	0f be       	out	0x3f, r0	; 63
     8e4:	0f 90       	pop	r0
     8e6:	1f 90       	pop	r1
     8e8:	18 95       	reti

000008ea <__vector_6>:

ISR(INT5_vect)
{
     8ea:	1f 92       	push	r1
     8ec:	0f 92       	push	r0
     8ee:	0f b6       	in	r0, 0x3f	; 63
     8f0:	0f 92       	push	r0
     8f2:	11 24       	eor	r1, r1
     8f4:	0b b6       	in	r0, 0x3b	; 59
     8f6:	0f 92       	push	r0
     8f8:	2f 93       	push	r18
     8fa:	3f 93       	push	r19
     8fc:	4f 93       	push	r20
     8fe:	5f 93       	push	r21
     900:	6f 93       	push	r22
     902:	7f 93       	push	r23
     904:	8f 93       	push	r24
     906:	9f 93       	push	r25
     908:	af 93       	push	r26
     90a:	bf 93       	push	r27
     90c:	ef 93       	push	r30
     90e:	ff 93       	push	r31
	if (g_interrupt_callback != NULL)
     910:	e0 91 06 02 	lds	r30, 0x0206	; 0x800206 <__data_end>
     914:	f0 91 07 02 	lds	r31, 0x0207	; 0x800207 <__data_end+0x1>
     918:	30 97       	sbiw	r30, 0x00	; 0
     91a:	11 f0       	breq	.+4      	; 0x920 <__vector_6+0x36>
	{
		g_interrupt_callback(5);
     91c:	85 e0       	ldi	r24, 0x05	; 5
     91e:	19 95       	eicall
	}
}
     920:	ff 91       	pop	r31
     922:	ef 91       	pop	r30
     924:	bf 91       	pop	r27
     926:	af 91       	pop	r26
     928:	9f 91       	pop	r25
     92a:	8f 91       	pop	r24
     92c:	7f 91       	pop	r23
     92e:	6f 91       	pop	r22
     930:	5f 91       	pop	r21
     932:	4f 91       	pop	r20
     934:	3f 91       	pop	r19
     936:	2f 91       	pop	r18
     938:	0f 90       	pop	r0
     93a:	0b be       	out	0x3b, r0	; 59
     93c:	0f 90       	pop	r0
     93e:	0f be       	out	0x3f, r0	; 63
     940:	0f 90       	pop	r0
     942:	1f 90       	pop	r1
     944:	18 95       	reti

00000946 <__vector_7>:

ISR(INT6_vect)
{
     946:	1f 92       	push	r1
     948:	0f 92       	push	r0
     94a:	0f b6       	in	r0, 0x3f	; 63
     94c:	0f 92       	push	r0
     94e:	11 24       	eor	r1, r1
     950:	0b b6       	in	r0, 0x3b	; 59
     952:	0f 92       	push	r0
     954:	2f 93       	push	r18
     956:	3f 93       	push	r19
     958:	4f 93       	push	r20
     95a:	5f 93       	push	r21
     95c:	6f 93       	push	r22
     95e:	7f 93       	push	r23
     960:	8f 93       	push	r24
     962:	9f 93       	push	r25
     964:	af 93       	push	r26
     966:	bf 93       	push	r27
     968:	ef 93       	push	r30
     96a:	ff 93       	push	r31
	if (g_interrupt_callback != NULL)
     96c:	e0 91 06 02 	lds	r30, 0x0206	; 0x800206 <__data_end>
     970:	f0 91 07 02 	lds	r31, 0x0207	; 0x800207 <__data_end+0x1>
     974:	30 97       	sbiw	r30, 0x00	; 0
     976:	11 f0       	breq	.+4      	; 0x97c <__vector_7+0x36>
	{
		g_interrupt_callback(6);
     978:	86 e0       	ldi	r24, 0x06	; 6
     97a:	19 95       	eicall
	}
}
     97c:	ff 91       	pop	r31
     97e:	ef 91       	pop	r30
     980:	bf 91       	pop	r27
     982:	af 91       	pop	r26
     984:	9f 91       	pop	r25
     986:	8f 91       	pop	r24
     988:	7f 91       	pop	r23
     98a:	6f 91       	pop	r22
     98c:	5f 91       	pop	r21
     98e:	4f 91       	pop	r20
     990:	3f 91       	pop	r19
     992:	2f 91       	pop	r18
     994:	0f 90       	pop	r0
     996:	0b be       	out	0x3b, r0	; 59
     998:	0f 90       	pop	r0
     99a:	0f be       	out	0x3f, r0	; 63
     99c:	0f 90       	pop	r0
     99e:	1f 90       	pop	r1
     9a0:	18 95       	reti

000009a2 <__vector_8>:

ISR(INT7_vect)
{
     9a2:	1f 92       	push	r1
     9a4:	0f 92       	push	r0
     9a6:	0f b6       	in	r0, 0x3f	; 63
     9a8:	0f 92       	push	r0
     9aa:	11 24       	eor	r1, r1
     9ac:	0b b6       	in	r0, 0x3b	; 59
     9ae:	0f 92       	push	r0
     9b0:	2f 93       	push	r18
     9b2:	3f 93       	push	r19
     9b4:	4f 93       	push	r20
     9b6:	5f 93       	push	r21
     9b8:	6f 93       	push	r22
     9ba:	7f 93       	push	r23
     9bc:	8f 93       	push	r24
     9be:	9f 93       	push	r25
     9c0:	af 93       	push	r26
     9c2:	bf 93       	push	r27
     9c4:	ef 93       	push	r30
     9c6:	ff 93       	push	r31
	if (g_interrupt_callback != NULL)
     9c8:	e0 91 06 02 	lds	r30, 0x0206	; 0x800206 <__data_end>
     9cc:	f0 91 07 02 	lds	r31, 0x0207	; 0x800207 <__data_end+0x1>
     9d0:	30 97       	sbiw	r30, 0x00	; 0
     9d2:	11 f0       	breq	.+4      	; 0x9d8 <__vector_8+0x36>
	{
		g_interrupt_callback(7);
     9d4:	87 e0       	ldi	r24, 0x07	; 7
     9d6:	19 95       	eicall
	}
     9d8:	ff 91       	pop	r31
     9da:	ef 91       	pop	r30
     9dc:	bf 91       	pop	r27
     9de:	af 91       	pop	r26
     9e0:	9f 91       	pop	r25
     9e2:	8f 91       	pop	r24
     9e4:	7f 91       	pop	r23
     9e6:	6f 91       	pop	r22
     9e8:	5f 91       	pop	r21
     9ea:	4f 91       	pop	r20
     9ec:	3f 91       	pop	r19
     9ee:	2f 91       	pop	r18
     9f0:	0f 90       	pop	r0
     9f2:	0b be       	out	0x3b, r0	; 59
     9f4:	0f 90       	pop	r0
     9f6:	0f be       	out	0x3f, r0	; 63
     9f8:	0f 90       	pop	r0
     9fa:	1f 90       	pop	r1
     9fc:	18 95       	reti

000009fe <map_registers>:
uint32_t map_registers(portx led_port)
{
	uint32_t err = NO_ERROR;
	do
	{
		if (led_port!=PortA && led_port!=PortB && led_port!=PortC && led_port!=PortD && led_port!=PortE && led_port!=PortF && led_port!=PortG && led_port!=PortH && led_port!=PortJ && led_port!=PortK && led_port!=PortL )
     9fe:	8b 30       	cpi	r24, 0x0B	; 11
     a00:	08 f0       	brcs	.+2      	; 0xa04 <map_registers+0x6>
     a02:	bc c0       	rjmp	.+376    	; 0xb7c <map_registers+0x17e>
		{
			err=PORT_ERROR;
			break;
		}
		switch (led_port)
     a04:	90 e0       	ldi	r25, 0x00	; 0
     a06:	8b 30       	cpi	r24, 0x0B	; 11
     a08:	91 05       	cpc	r25, r1
     a0a:	08 f0       	brcs	.+2      	; 0xa0e <map_registers+0x10>
     a0c:	bc c0       	rjmp	.+376    	; 0xb86 <map_registers+0x188>
     a0e:	fc 01       	movw	r30, r24
     a10:	88 27       	eor	r24, r24
     a12:	ee 58       	subi	r30, 0x8E	; 142
     a14:	ff 4f       	sbci	r31, 0xFF	; 255
     a16:	8f 4f       	sbci	r24, 0xFF	; 255
     a18:	0c 94 c9 0d 	jmp	0x1b92	; 0x1b92 <__tablejump2__>
		{
			case PortA:
			{
				DDRx = &DDRA;
     a1c:	81 e2       	ldi	r24, 0x21	; 33
     a1e:	90 e0       	ldi	r25, 0x00	; 0
     a20:	90 93 0b 02 	sts	0x020B, r25	; 0x80020b <DDRx+0x1>
     a24:	80 93 0a 02 	sts	0x020A, r24	; 0x80020a <DDRx>
				PORTx = &PORTA;
     a28:	82 e2       	ldi	r24, 0x22	; 34
     a2a:	90 e0       	ldi	r25, 0x00	; 0
     a2c:	90 93 09 02 	sts	0x0209, r25	; 0x800209 <PORTx+0x1>
     a30:	80 93 08 02 	sts	0x0208, r24	; 0x800208 <PORTx>
	return err;
}

uint32_t map_registers(portx led_port)
{
	uint32_t err = NO_ERROR;
     a34:	60 e0       	ldi	r22, 0x00	; 0
     a36:	70 e0       	ldi	r23, 0x00	; 0
     a38:	cb 01       	movw	r24, r22
		{
			case PortA:
			{
				DDRx = &DDRA;
				PORTx = &PORTA;
				break;
     a3a:	08 95       	ret
			}
			case PortB:
			{
				DDRx = &DDRB;
     a3c:	84 e2       	ldi	r24, 0x24	; 36
     a3e:	90 e0       	ldi	r25, 0x00	; 0
     a40:	90 93 0b 02 	sts	0x020B, r25	; 0x80020b <DDRx+0x1>
     a44:	80 93 0a 02 	sts	0x020A, r24	; 0x80020a <DDRx>
				PORTx = &PORTB;
     a48:	85 e2       	ldi	r24, 0x25	; 37
     a4a:	90 e0       	ldi	r25, 0x00	; 0
     a4c:	90 93 09 02 	sts	0x0209, r25	; 0x800209 <PORTx+0x1>
     a50:	80 93 08 02 	sts	0x0208, r24	; 0x800208 <PORTx>
	return err;
}

uint32_t map_registers(portx led_port)
{
	uint32_t err = NO_ERROR;
     a54:	60 e0       	ldi	r22, 0x00	; 0
     a56:	70 e0       	ldi	r23, 0x00	; 0
     a58:	cb 01       	movw	r24, r22
			}
			case PortB:
			{
				DDRx = &DDRB;
				PORTx = &PORTB;
				break;
     a5a:	08 95       	ret
			}
			case PortC:
			{
				DDRx = &DDRC;
     a5c:	87 e2       	ldi	r24, 0x27	; 39
     a5e:	90 e0       	ldi	r25, 0x00	; 0
     a60:	90 93 0b 02 	sts	0x020B, r25	; 0x80020b <DDRx+0x1>
     a64:	80 93 0a 02 	sts	0x020A, r24	; 0x80020a <DDRx>
				PORTx = &PORTC;
     a68:	88 e2       	ldi	r24, 0x28	; 40
     a6a:	90 e0       	ldi	r25, 0x00	; 0
     a6c:	90 93 09 02 	sts	0x0209, r25	; 0x800209 <PORTx+0x1>
     a70:	80 93 08 02 	sts	0x0208, r24	; 0x800208 <PORTx>
	return err;
}

uint32_t map_registers(portx led_port)
{
	uint32_t err = NO_ERROR;
     a74:	60 e0       	ldi	r22, 0x00	; 0
     a76:	70 e0       	ldi	r23, 0x00	; 0
     a78:	cb 01       	movw	r24, r22
			}
			case PortC:
			{
				DDRx = &DDRC;
				PORTx = &PORTC;
				break;
     a7a:	08 95       	ret
			}
			case PortD:
			{
				DDRx = &DDRD;
     a7c:	8a e2       	ldi	r24, 0x2A	; 42
     a7e:	90 e0       	ldi	r25, 0x00	; 0
     a80:	90 93 0b 02 	sts	0x020B, r25	; 0x80020b <DDRx+0x1>
     a84:	80 93 0a 02 	sts	0x020A, r24	; 0x80020a <DDRx>
				PORTx = &PORTD;
     a88:	8b e2       	ldi	r24, 0x2B	; 43
     a8a:	90 e0       	ldi	r25, 0x00	; 0
     a8c:	90 93 09 02 	sts	0x0209, r25	; 0x800209 <PORTx+0x1>
     a90:	80 93 08 02 	sts	0x0208, r24	; 0x800208 <PORTx>
	return err;
}

uint32_t map_registers(portx led_port)
{
	uint32_t err = NO_ERROR;
     a94:	60 e0       	ldi	r22, 0x00	; 0
     a96:	70 e0       	ldi	r23, 0x00	; 0
     a98:	cb 01       	movw	r24, r22
			}
			case PortD:
			{
				DDRx = &DDRD;
				PORTx = &PORTD;
				break;
     a9a:	08 95       	ret
			}
			case PortE:
			{
				DDRx = &DDRE;
     a9c:	8d e2       	ldi	r24, 0x2D	; 45
     a9e:	90 e0       	ldi	r25, 0x00	; 0
     aa0:	90 93 0b 02 	sts	0x020B, r25	; 0x80020b <DDRx+0x1>
     aa4:	80 93 0a 02 	sts	0x020A, r24	; 0x80020a <DDRx>
				PORTx = &PORTE;
     aa8:	8e e2       	ldi	r24, 0x2E	; 46
     aaa:	90 e0       	ldi	r25, 0x00	; 0
     aac:	90 93 09 02 	sts	0x0209, r25	; 0x800209 <PORTx+0x1>
     ab0:	80 93 08 02 	sts	0x0208, r24	; 0x800208 <PORTx>
	return err;
}

uint32_t map_registers(portx led_port)
{
	uint32_t err = NO_ERROR;
     ab4:	60 e0       	ldi	r22, 0x00	; 0
     ab6:	70 e0       	ldi	r23, 0x00	; 0
     ab8:	cb 01       	movw	r24, r22
			}
			case PortE:
			{
				DDRx = &DDRE;
				PORTx = &PORTE;
				break;
     aba:	08 95       	ret
			}
			case PortF:
			{
				DDRx = &DDRF;
     abc:	80 e3       	ldi	r24, 0x30	; 48
     abe:	90 e0       	ldi	r25, 0x00	; 0
     ac0:	90 93 0b 02 	sts	0x020B, r25	; 0x80020b <DDRx+0x1>
     ac4:	80 93 0a 02 	sts	0x020A, r24	; 0x80020a <DDRx>
				PORTx = &PORTF;
     ac8:	81 e3       	ldi	r24, 0x31	; 49
     aca:	90 e0       	ldi	r25, 0x00	; 0
     acc:	90 93 09 02 	sts	0x0209, r25	; 0x800209 <PORTx+0x1>
     ad0:	80 93 08 02 	sts	0x0208, r24	; 0x800208 <PORTx>
	return err;
}

uint32_t map_registers(portx led_port)
{
	uint32_t err = NO_ERROR;
     ad4:	60 e0       	ldi	r22, 0x00	; 0
     ad6:	70 e0       	ldi	r23, 0x00	; 0
     ad8:	cb 01       	movw	r24, r22
			}
			case PortF:
			{
				DDRx = &DDRF;
				PORTx = &PORTF;
				break;
     ada:	08 95       	ret
			}
			case PortG:
			{
				DDRx = &DDRG;
     adc:	83 e3       	ldi	r24, 0x33	; 51
     ade:	90 e0       	ldi	r25, 0x00	; 0
     ae0:	90 93 0b 02 	sts	0x020B, r25	; 0x80020b <DDRx+0x1>
     ae4:	80 93 0a 02 	sts	0x020A, r24	; 0x80020a <DDRx>
				PORTx = &PORTG;
     ae8:	84 e3       	ldi	r24, 0x34	; 52
     aea:	90 e0       	ldi	r25, 0x00	; 0
     aec:	90 93 09 02 	sts	0x0209, r25	; 0x800209 <PORTx+0x1>
     af0:	80 93 08 02 	sts	0x0208, r24	; 0x800208 <PORTx>
	return err;
}

uint32_t map_registers(portx led_port)
{
	uint32_t err = NO_ERROR;
     af4:	60 e0       	ldi	r22, 0x00	; 0
     af6:	70 e0       	ldi	r23, 0x00	; 0
     af8:	cb 01       	movw	r24, r22
			}
			case PortG:
			{
				DDRx = &DDRG;
				PORTx = &PORTG;
				break;
     afa:	08 95       	ret
			}
			case PortH:
			{
				DDRx = &DDRH;
     afc:	81 e0       	ldi	r24, 0x01	; 1
     afe:	91 e0       	ldi	r25, 0x01	; 1
     b00:	90 93 0b 02 	sts	0x020B, r25	; 0x80020b <DDRx+0x1>
     b04:	80 93 0a 02 	sts	0x020A, r24	; 0x80020a <DDRx>
				PORTx = &PORTH;
     b08:	82 e0       	ldi	r24, 0x02	; 2
     b0a:	91 e0       	ldi	r25, 0x01	; 1
     b0c:	90 93 09 02 	sts	0x0209, r25	; 0x800209 <PORTx+0x1>
     b10:	80 93 08 02 	sts	0x0208, r24	; 0x800208 <PORTx>
	return err;
}

uint32_t map_registers(portx led_port)
{
	uint32_t err = NO_ERROR;
     b14:	60 e0       	ldi	r22, 0x00	; 0
     b16:	70 e0       	ldi	r23, 0x00	; 0
     b18:	cb 01       	movw	r24, r22
			}
			case PortH:
			{
				DDRx = &DDRH;
				PORTx = &PORTH;
				break;
     b1a:	08 95       	ret
			}
			case PortJ:
			{
				DDRx = &DDRJ;
     b1c:	84 e0       	ldi	r24, 0x04	; 4
     b1e:	91 e0       	ldi	r25, 0x01	; 1
     b20:	90 93 0b 02 	sts	0x020B, r25	; 0x80020b <DDRx+0x1>
     b24:	80 93 0a 02 	sts	0x020A, r24	; 0x80020a <DDRx>
				PORTx = &PORTJ;
     b28:	85 e0       	ldi	r24, 0x05	; 5
     b2a:	91 e0       	ldi	r25, 0x01	; 1
     b2c:	90 93 09 02 	sts	0x0209, r25	; 0x800209 <PORTx+0x1>
     b30:	80 93 08 02 	sts	0x0208, r24	; 0x800208 <PORTx>
	return err;
}

uint32_t map_registers(portx led_port)
{
	uint32_t err = NO_ERROR;
     b34:	60 e0       	ldi	r22, 0x00	; 0
     b36:	70 e0       	ldi	r23, 0x00	; 0
     b38:	cb 01       	movw	r24, r22
			}
			case PortJ:
			{
				DDRx = &DDRJ;
				PORTx = &PORTJ;
				break;
     b3a:	08 95       	ret
			}
			case PortK:
			{
				DDRx = &DDRK;
     b3c:	87 e0       	ldi	r24, 0x07	; 7
     b3e:	91 e0       	ldi	r25, 0x01	; 1
     b40:	90 93 0b 02 	sts	0x020B, r25	; 0x80020b <DDRx+0x1>
     b44:	80 93 0a 02 	sts	0x020A, r24	; 0x80020a <DDRx>
				PORTx = &PORTK;
     b48:	88 e0       	ldi	r24, 0x08	; 8
     b4a:	91 e0       	ldi	r25, 0x01	; 1
     b4c:	90 93 09 02 	sts	0x0209, r25	; 0x800209 <PORTx+0x1>
     b50:	80 93 08 02 	sts	0x0208, r24	; 0x800208 <PORTx>
	return err;
}

uint32_t map_registers(portx led_port)
{
	uint32_t err = NO_ERROR;
     b54:	60 e0       	ldi	r22, 0x00	; 0
     b56:	70 e0       	ldi	r23, 0x00	; 0
     b58:	cb 01       	movw	r24, r22
			}
			case PortK:
			{
				DDRx = &DDRK;
				PORTx = &PORTK;
				break;
     b5a:	08 95       	ret
			}
			case PortL:
			{
				DDRx = &DDRL;
     b5c:	8a e0       	ldi	r24, 0x0A	; 10
     b5e:	91 e0       	ldi	r25, 0x01	; 1
     b60:	90 93 0b 02 	sts	0x020B, r25	; 0x80020b <DDRx+0x1>
     b64:	80 93 0a 02 	sts	0x020A, r24	; 0x80020a <DDRx>
				PORTx = &PORTL;
     b68:	8b e0       	ldi	r24, 0x0B	; 11
     b6a:	91 e0       	ldi	r25, 0x01	; 1
     b6c:	90 93 09 02 	sts	0x0209, r25	; 0x800209 <PORTx+0x1>
     b70:	80 93 08 02 	sts	0x0208, r24	; 0x800208 <PORTx>
	return err;
}

uint32_t map_registers(portx led_port)
{
	uint32_t err = NO_ERROR;
     b74:	60 e0       	ldi	r22, 0x00	; 0
     b76:	70 e0       	ldi	r23, 0x00	; 0
     b78:	cb 01       	movw	r24, r22
			}
			case PortL:
			{
				DDRx = &DDRL;
				PORTx = &PORTL;
				break;
     b7a:	08 95       	ret
	uint32_t err = NO_ERROR;
	do
	{
		if (led_port!=PortA && led_port!=PortB && led_port!=PortC && led_port!=PortD && led_port!=PortE && led_port!=PortF && led_port!=PortG && led_port!=PortH && led_port!=PortJ && led_port!=PortK && led_port!=PortL )
		{
			err=PORT_ERROR;
     b7c:	62 e0       	ldi	r22, 0x02	; 2
     b7e:	70 e0       	ldi	r23, 0x00	; 0
     b80:	80 e0       	ldi	r24, 0x00	; 0
     b82:	90 e0       	ldi	r25, 0x00	; 0
     b84:	08 95       	ret
	return err;
}

uint32_t map_registers(portx led_port)
{
	uint32_t err = NO_ERROR;
     b86:	60 e0       	ldi	r22, 0x00	; 0
     b88:	70 e0       	ldi	r23, 0x00	; 0
     b8a:	cb 01       	movw	r24, r22
				break;
			}
		}
	}while(0);
	return err;
     b8c:	08 95       	ret

00000b8e <led_init>:
 * @return PORT_ERROR - port name wrong
 */
uint32_t map_registers(portx led_port);

uint32_t led_init (portx led_port, uint8_t led_pin)
{	
     b8e:	cf 93       	push	r28
     b90:	df 93       	push	r29
     b92:	c8 2f       	mov	r28, r24
     b94:	d6 2f       	mov	r29, r22
	uint32_t err=NO_ERROR;
	do
	{
		if (map_registers(led_port))
     b96:	33 df       	rcall	.-410    	; 0x9fe <map_registers>
     b98:	67 2b       	or	r22, r23
     b9a:	68 2b       	or	r22, r24
     b9c:	69 2b       	or	r22, r25
     b9e:	c1 f4       	brne	.+48     	; 0xbd0 <led_init+0x42>
		{
			err=PORT_ERROR;
			break;
		}
		if (led_pin>7)
     ba0:	d8 30       	cpi	r29, 0x08	; 8
     ba2:	d8 f4       	brcc	.+54     	; 0xbda <led_init+0x4c>
		{
			err=PIN_ERROR;
			break;
		}
		if (led_pin>5 && led_port == PortG)
     ba4:	d6 30       	cpi	r29, 0x06	; 6
     ba6:	10 f0       	brcs	.+4      	; 0xbac <led_init+0x1e>
     ba8:	c6 30       	cpi	r28, 0x06	; 6
     baa:	e1 f0       	breq	.+56     	; 0xbe4 <led_init+0x56>
		{
			err=PIN_ERROR;
			break;
		}
		gpio_hal_pin_init(DDRx,led_pin,output);
     bac:	41 e0       	ldi	r20, 0x01	; 1
     bae:	6d 2f       	mov	r22, r29
     bb0:	80 91 0a 02 	lds	r24, 0x020A	; 0x80020a <DDRx>
     bb4:	90 91 0b 02 	lds	r25, 0x020B	; 0x80020b <DDRx+0x1>
     bb8:	63 db       	rcall	.-2362   	; 0x280 <gpio_hal_pin_init>
		gpio_hal_pin_set(PORTx, led_pin, 0);
     bba:	40 e0       	ldi	r20, 0x00	; 0
     bbc:	6d 2f       	mov	r22, r29
     bbe:	80 91 08 02 	lds	r24, 0x0208	; 0x800208 <PORTx>
     bc2:	90 91 09 02 	lds	r25, 0x0209	; 0x800209 <PORTx+0x1>
     bc6:	c0 db       	rcall	.-2176   	; 0x348 <gpio_hal_pin_set>
 */
uint32_t map_registers(portx led_port);

uint32_t led_init (portx led_port, uint8_t led_pin)
{	
	uint32_t err=NO_ERROR;
     bc8:	60 e0       	ldi	r22, 0x00	; 0
     bca:	70 e0       	ldi	r23, 0x00	; 0
     bcc:	cb 01       	movw	r24, r22
     bce:	0e c0       	rjmp	.+28     	; 0xbec <led_init+0x5e>
	do
	{
		if (map_registers(led_port))
		{
			err=PORT_ERROR;
     bd0:	62 e0       	ldi	r22, 0x02	; 2
     bd2:	70 e0       	ldi	r23, 0x00	; 0
     bd4:	80 e0       	ldi	r24, 0x00	; 0
     bd6:	90 e0       	ldi	r25, 0x00	; 0
     bd8:	09 c0       	rjmp	.+18     	; 0xbec <led_init+0x5e>
			break;
		}
		if (led_pin>7)
		{
			err=PIN_ERROR;
     bda:	63 e0       	ldi	r22, 0x03	; 3
     bdc:	70 e0       	ldi	r23, 0x00	; 0
     bde:	80 e0       	ldi	r24, 0x00	; 0
     be0:	90 e0       	ldi	r25, 0x00	; 0
     be2:	04 c0       	rjmp	.+8      	; 0xbec <led_init+0x5e>
			break;
		}
		if (led_pin>5 && led_port == PortG)
		{
			err=PIN_ERROR;
     be4:	63 e0       	ldi	r22, 0x03	; 3
     be6:	70 e0       	ldi	r23, 0x00	; 0
     be8:	80 e0       	ldi	r24, 0x00	; 0
     bea:	90 e0       	ldi	r25, 0x00	; 0
		}
		gpio_hal_pin_init(DDRx,led_pin,output);
		gpio_hal_pin_set(PORTx, led_pin, 0);
	}while (0);
	return err;		
}
     bec:	df 91       	pop	r29
     bee:	cf 91       	pop	r28
     bf0:	08 95       	ret

00000bf2 <led_toggle>:

uint32_t led_toggle(portx led_port, uint8_t led_pin)
{
     bf2:	cf 93       	push	r28
     bf4:	df 93       	push	r29
     bf6:	c8 2f       	mov	r28, r24
     bf8:	d6 2f       	mov	r29, r22
	uint32_t err=NO_ERROR;
	do
	{
		if (map_registers(led_port))
     bfa:	01 df       	rcall	.-510    	; 0x9fe <map_registers>
     bfc:	67 2b       	or	r22, r23
     bfe:	68 2b       	or	r22, r24
     c00:	69 2b       	or	r22, r25
     c02:	81 f4       	brne	.+32     	; 0xc24 <led_toggle+0x32>
		{
			err=PORT_ERROR;
			break;
		}
		if (led_pin>7)
     c04:	d8 30       	cpi	r29, 0x08	; 8
     c06:	98 f4       	brcc	.+38     	; 0xc2e <led_toggle+0x3c>
		{
			err=PIN_ERROR;
			break;
		}
		if (led_pin>5 && led_port == PortG)
     c08:	d6 30       	cpi	r29, 0x06	; 6
     c0a:	10 f0       	brcs	.+4      	; 0xc10 <led_toggle+0x1e>
     c0c:	c6 30       	cpi	r28, 0x06	; 6
     c0e:	a1 f0       	breq	.+40     	; 0xc38 <led_toggle+0x46>
		{
			err=PIN_ERROR;
			break;
		}
		gpio_hal_pin_toggle(PORTx, led_pin);
     c10:	6d 2f       	mov	r22, r29
     c12:	80 91 08 02 	lds	r24, 0x0208	; 0x800208 <PORTx>
     c16:	90 91 09 02 	lds	r25, 0x0209	; 0x800209 <PORTx+0x1>
     c1a:	fa db       	rcall	.-2060   	; 0x410 <gpio_hal_pin_toggle>
	return err;		
}

uint32_t led_toggle(portx led_port, uint8_t led_pin)
{
	uint32_t err=NO_ERROR;
     c1c:	60 e0       	ldi	r22, 0x00	; 0
     c1e:	70 e0       	ldi	r23, 0x00	; 0
     c20:	cb 01       	movw	r24, r22
     c22:	0e c0       	rjmp	.+28     	; 0xc40 <led_toggle+0x4e>
	do
	{
		if (map_registers(led_port))
		{
			err=PORT_ERROR;
     c24:	62 e0       	ldi	r22, 0x02	; 2
     c26:	70 e0       	ldi	r23, 0x00	; 0
     c28:	80 e0       	ldi	r24, 0x00	; 0
     c2a:	90 e0       	ldi	r25, 0x00	; 0
     c2c:	09 c0       	rjmp	.+18     	; 0xc40 <led_toggle+0x4e>
			break;
		}
		if (led_pin>7)
		{
			err=PIN_ERROR;
     c2e:	63 e0       	ldi	r22, 0x03	; 3
     c30:	70 e0       	ldi	r23, 0x00	; 0
     c32:	80 e0       	ldi	r24, 0x00	; 0
     c34:	90 e0       	ldi	r25, 0x00	; 0
     c36:	04 c0       	rjmp	.+8      	; 0xc40 <led_toggle+0x4e>
			break;
		}
		if (led_pin>5 && led_port == PortG)
		{
			err=PIN_ERROR;
     c38:	63 e0       	ldi	r22, 0x03	; 3
     c3a:	70 e0       	ldi	r23, 0x00	; 0
     c3c:	80 e0       	ldi	r24, 0x00	; 0
     c3e:	90 e0       	ldi	r25, 0x00	; 0
			break;
		}
		gpio_hal_pin_toggle(PORTx, led_pin);
	}while (0);
	return err;
}
     c40:	df 91       	pop	r29
     c42:	cf 91       	pop	r28
     c44:	08 95       	ret

00000c46 <led_off>:

uint32_t led_off(portx led_port, uint8_t led_pin)
{
     c46:	cf 93       	push	r28
     c48:	df 93       	push	r29
     c4a:	c8 2f       	mov	r28, r24
     c4c:	d6 2f       	mov	r29, r22
	uint32_t err=NO_ERROR;
	do
	{
		if (map_registers(led_port))
     c4e:	d7 de       	rcall	.-594    	; 0x9fe <map_registers>
     c50:	67 2b       	or	r22, r23
     c52:	68 2b       	or	r22, r24
     c54:	69 2b       	or	r22, r25
     c56:	89 f4       	brne	.+34     	; 0xc7a <led_off+0x34>
		{
			err=PORT_ERROR;
			break;
		}
		if (led_pin>7)
     c58:	d8 30       	cpi	r29, 0x08	; 8
     c5a:	a0 f4       	brcc	.+40     	; 0xc84 <led_off+0x3e>
		{
			err=PIN_ERROR;
			break;
		}
		if (led_pin>5 && led_port == PortG)
     c5c:	d6 30       	cpi	r29, 0x06	; 6
     c5e:	10 f0       	brcs	.+4      	; 0xc64 <led_off+0x1e>
     c60:	c6 30       	cpi	r28, 0x06	; 6
     c62:	a9 f0       	breq	.+42     	; 0xc8e <led_off+0x48>
		{
			err=PIN_ERROR;
			break;
		}
		gpio_hal_pin_set(PORTx, led_pin, 0);
     c64:	40 e0       	ldi	r20, 0x00	; 0
     c66:	6d 2f       	mov	r22, r29
     c68:	80 91 08 02 	lds	r24, 0x0208	; 0x800208 <PORTx>
     c6c:	90 91 09 02 	lds	r25, 0x0209	; 0x800209 <PORTx+0x1>
     c70:	6b db       	rcall	.-2346   	; 0x348 <gpio_hal_pin_set>
	return err;
}

uint32_t led_off(portx led_port, uint8_t led_pin)
{
	uint32_t err=NO_ERROR;
     c72:	60 e0       	ldi	r22, 0x00	; 0
     c74:	70 e0       	ldi	r23, 0x00	; 0
     c76:	cb 01       	movw	r24, r22
     c78:	0e c0       	rjmp	.+28     	; 0xc96 <led_off+0x50>
	do
	{
		if (map_registers(led_port))
		{
			err=PORT_ERROR;
     c7a:	62 e0       	ldi	r22, 0x02	; 2
     c7c:	70 e0       	ldi	r23, 0x00	; 0
     c7e:	80 e0       	ldi	r24, 0x00	; 0
     c80:	90 e0       	ldi	r25, 0x00	; 0
     c82:	09 c0       	rjmp	.+18     	; 0xc96 <led_off+0x50>
			break;
		}
		if (led_pin>7)
		{
			err=PIN_ERROR;
     c84:	63 e0       	ldi	r22, 0x03	; 3
     c86:	70 e0       	ldi	r23, 0x00	; 0
     c88:	80 e0       	ldi	r24, 0x00	; 0
     c8a:	90 e0       	ldi	r25, 0x00	; 0
     c8c:	04 c0       	rjmp	.+8      	; 0xc96 <led_off+0x50>
			break;
		}
		if (led_pin>5 && led_port == PortG)
		{
			err=PIN_ERROR;
     c8e:	63 e0       	ldi	r22, 0x03	; 3
     c90:	70 e0       	ldi	r23, 0x00	; 0
     c92:	80 e0       	ldi	r24, 0x00	; 0
     c94:	90 e0       	ldi	r25, 0x00	; 0
			break;
		}
		gpio_hal_pin_set(PORTx, led_pin, 0);
	}while (0);
	return err;
}
     c96:	df 91       	pop	r29
     c98:	cf 91       	pop	r28
     c9a:	08 95       	ret

00000c9c <on_packet_transmission_complete>:
	}
}

void on_packet_transmission_complete(uint8_t uart_number ,uint32_t status)
{
	if(uart_number == g_uart_number)
     c9c:	81 11       	cpse	r24, r1
     c9e:	03 c0       	rjmp	.+6      	; 0xca6 <on_packet_transmission_complete+0xa>
	{
		led_toggle(g_led_port, g_led_pin);
     ca0:	67 e0       	ldi	r22, 0x07	; 7
     ca2:	81 e0       	ldi	r24, 0x01	; 1
     ca4:	a6 cf       	rjmp	.-180    	; 0xbf2 <led_toggle>
     ca6:	08 95       	ret

00000ca8 <on_packet_receive_complete>:
}

void on_packet_receive_complete(uint8_t uart_number, uint8_t tl_packet [] , PACKET_CRC_ERR_STATE_t error)
{
	uint8_t buffer [buffer_length] = {3, 5, 6, 10, 24};
	if(uart_number == g_uart_number && error == NO_CRC_ERROR)// && tl_packet==buffer)
     ca8:	81 11       	cpse	r24, r1
     caa:	43 c0       	rjmp	.+134    	; 0xd32 <on_packet_receive_complete+0x8a>
     cac:	41 11       	cpse	r20, r1
     cae:	41 c0       	rjmp	.+130    	; 0xd32 <on_packet_receive_complete+0x8a>
	{
		
			if (tl_packet[0]==3 )
     cb0:	fb 01       	movw	r30, r22
     cb2:	80 81       	ld	r24, Z
     cb4:	83 30       	cpi	r24, 0x03	; 3
     cb6:	09 f0       	breq	.+2      	; 0xcba <on_packet_receive_complete+0x12>
     cb8:	3c c0       	rjmp	.+120    	; 0xd32 <on_packet_receive_complete+0x8a>
			{
			 if (tl_packet[1]==5)
     cba:	81 81       	ldd	r24, Z+1	; 0x01
     cbc:	85 30       	cpi	r24, 0x05	; 5
     cbe:	c9 f5       	brne	.+114    	; 0xd32 <on_packet_receive_complete+0x8a>
			 { 
			  if (tl_packet[2]==6)
     cc0:	82 81       	ldd	r24, Z+2	; 0x02
     cc2:	86 30       	cpi	r24, 0x06	; 6
     cc4:	b1 f5       	brne	.+108    	; 0xd32 <on_packet_receive_complete+0x8a>
			  {
			   if (tl_packet[3]==10)
     cc6:	83 81       	ldd	r24, Z+3	; 0x03
     cc8:	8a 30       	cpi	r24, 0x0A	; 10
     cca:	99 f5       	brne	.+102    	; 0xd32 <on_packet_receive_complete+0x8a>
			   {
				   if (tl_packet[4]==24)
     ccc:	84 81       	ldd	r24, Z+4	; 0x04
     cce:	88 31       	cpi	r24, 0x18	; 24
     cd0:	81 f5       	brne	.+96     	; 0xd32 <on_packet_receive_complete+0x8a>
				   {
					  led_toggle(g_led_port, g_led_pin);
     cd2:	67 e0       	ldi	r22, 0x07	; 7
     cd4:	81 e0       	ldi	r24, 0x01	; 1
     cd6:	8d df       	rcall	.-230    	; 0xbf2 <led_toggle>
	#else
		//round up by default
		__ticks_dc = (uint32_t)(ceil(fabs(__tmp)));
	#endif

	__builtin_avr_delay_cycles(__ticks_dc);
     cd8:	ff ef       	ldi	r31, 0xFF	; 255
     cda:	29 e6       	ldi	r18, 0x69	; 105
     cdc:	88 e1       	ldi	r24, 0x18	; 24
     cde:	f1 50       	subi	r31, 0x01	; 1
     ce0:	20 40       	sbci	r18, 0x00	; 0
     ce2:	80 40       	sbci	r24, 0x00	; 0
     ce4:	e1 f7       	brne	.-8      	; 0xcde <on_packet_receive_complete+0x36>
     ce6:	00 c0       	rjmp	.+0      	; 0xce8 <on_packet_receive_complete+0x40>
     ce8:	00 00       	nop
					  _delay_ms(500);
					  led_toggle(g_led_port, g_led_pin);
     cea:	67 e0       	ldi	r22, 0x07	; 7
     cec:	81 e0       	ldi	r24, 0x01	; 1
     cee:	81 df       	rcall	.-254    	; 0xbf2 <led_toggle>
     cf0:	9f ef       	ldi	r25, 0xFF	; 255
     cf2:	e9 e6       	ldi	r30, 0x69	; 105
     cf4:	f8 e1       	ldi	r31, 0x18	; 24
     cf6:	91 50       	subi	r25, 0x01	; 1
     cf8:	e0 40       	sbci	r30, 0x00	; 0
     cfa:	f0 40       	sbci	r31, 0x00	; 0
     cfc:	e1 f7       	brne	.-8      	; 0xcf6 <on_packet_receive_complete+0x4e>
     cfe:	00 c0       	rjmp	.+0      	; 0xd00 <on_packet_receive_complete+0x58>
     d00:	00 00       	nop
					  _delay_ms(500);
					  led_toggle(g_led_port, g_led_pin);
     d02:	67 e0       	ldi	r22, 0x07	; 7
     d04:	81 e0       	ldi	r24, 0x01	; 1
     d06:	75 df       	rcall	.-278    	; 0xbf2 <led_toggle>
     d08:	2f ef       	ldi	r18, 0xFF	; 255
     d0a:	89 e6       	ldi	r24, 0x69	; 105
     d0c:	98 e1       	ldi	r25, 0x18	; 24
     d0e:	21 50       	subi	r18, 0x01	; 1
     d10:	80 40       	sbci	r24, 0x00	; 0
     d12:	90 40       	sbci	r25, 0x00	; 0
     d14:	e1 f7       	brne	.-8      	; 0xd0e <on_packet_receive_complete+0x66>
     d16:	00 c0       	rjmp	.+0      	; 0xd18 <on_packet_receive_complete+0x70>
					  _delay_ms(500);
					  led_toggle(g_led_port, g_led_pin);
     d18:	00 00       	nop
     d1a:	67 e0       	ldi	r22, 0x07	; 7
     d1c:	81 e0       	ldi	r24, 0x01	; 1
     d1e:	69 df       	rcall	.-302    	; 0xbf2 <led_toggle>
     d20:	ef ef       	ldi	r30, 0xFF	; 255
     d22:	f9 e6       	ldi	r31, 0x69	; 105
     d24:	28 e1       	ldi	r18, 0x18	; 24
     d26:	e1 50       	subi	r30, 0x01	; 1
     d28:	f0 40       	sbci	r31, 0x00	; 0
     d2a:	20 40       	sbci	r18, 0x00	; 0
     d2c:	e1 f7       	brne	.-8      	; 0xd26 <on_packet_receive_complete+0x7e>
     d2e:	00 c0       	rjmp	.+0      	; 0xd30 <on_packet_receive_complete+0x88>
     d30:	00 00       	nop
     d32:	08 95       	ret

00000d34 <on_button_pressed>:
	}	
}


void on_button_pressed(portx buttonPort, uint8_t buttonPin, btn_state buttonState)
{
     d34:	cf 93       	push	r28
     d36:	df 93       	push	r29
     d38:	00 d0       	rcall	.+0      	; 0xd3a <on_button_pressed+0x6>
     d3a:	1f 92       	push	r1
     d3c:	1f 92       	push	r1
     d3e:	cd b7       	in	r28, 0x3d	; 61
     d40:	de b7       	in	r29, 0x3e	; 62
	uint8_t buffer [buffer_length] = {3, 5, 6, 10, 24};
     d42:	95 e0       	ldi	r25, 0x05	; 5
     d44:	e0 e0       	ldi	r30, 0x00	; 0
     d46:	f2 e0       	ldi	r31, 0x02	; 2
     d48:	de 01       	movw	r26, r28
     d4a:	11 96       	adiw	r26, 0x01	; 1
     d4c:	01 90       	ld	r0, Z+
     d4e:	0d 92       	st	X+, r0
     d50:	9a 95       	dec	r25
     d52:	e1 f7       	brne	.-8      	; 0xd4c <on_button_pressed+0x18>
	if( (buttonPort == g_btn_port) && (buttonPin == g_btn_pin) && (buttonState == pressed) )
     d54:	83 30       	cpi	r24, 0x03	; 3
     d56:	49 f4       	brne	.+18     	; 0xd6a <on_button_pressed+0x36>
     d58:	61 11       	cpse	r22, r1
     d5a:	07 c0       	rjmp	.+14     	; 0xd6a <on_button_pressed+0x36>
     d5c:	41 11       	cpse	r20, r1
     d5e:	05 c0       	rjmp	.+10     	; 0xd6a <on_button_pressed+0x36>
	{
		ph_transmit_packet(g_uart_number, buffer);
     d60:	be 01       	movw	r22, r28
     d62:	6f 5f       	subi	r22, 0xFF	; 255
     d64:	7f 4f       	sbci	r23, 0xFF	; 255
     d66:	80 e0       	ldi	r24, 0x00	; 0
     d68:	a5 d0       	rcall	.+330    	; 0xeb4 <ph_transmit_packet>
	}
}
     d6a:	0f 90       	pop	r0
     d6c:	0f 90       	pop	r0
     d6e:	0f 90       	pop	r0
     d70:	0f 90       	pop	r0
     d72:	0f 90       	pop	r0
     d74:	df 91       	pop	r29
     d76:	cf 91       	pop	r28
     d78:	08 95       	ret

00000d7a <main>:
void on_packet_transmission_complete(uint8_t uart_number ,uint32_t status);


int main(void)
{
	btn_init (g_btn_port,g_btn_pin);
     d7a:	60 e0       	ldi	r22, 0x00	; 0
     d7c:	83 e0       	ldi	r24, 0x03	; 3
     d7e:	17 da       	rcall	.-3026   	; 0x1ae <btn_init>
	btn_set_event_callback(on_button_pressed);
     d80:	8a e9       	ldi	r24, 0x9A	; 154
     d82:	96 e0       	ldi	r25, 0x06	; 6
     d84:	6e da       	rcall	.-2852   	; 0x262 <btn_set_event_callback>
	//PH_CALLBACKS_t * callbacks = {on_packet_transmission_complete, on_packet_receive_complete};
	ph_init(g_uart_number, on_packet_transmission_complete, on_packet_receive_complete);
     d86:	44 e5       	ldi	r20, 0x54	; 84
     d88:	56 e0       	ldi	r21, 0x06	; 6
     d8a:	6e e4       	ldi	r22, 0x4E	; 78
     d8c:	76 e0       	ldi	r23, 0x06	; 6
     d8e:	80 e0       	ldi	r24, 0x00	; 0
     d90:	16 d0       	rcall	.+44     	; 0xdbe <ph_init>
	led_init (g_led_port, g_led_pin);
     d92:	67 e0       	ldi	r22, 0x07	; 7
     d94:	81 e0       	ldi	r24, 0x01	; 1
     d96:	fb de       	rcall	.-522    	; 0xb8e <led_init>
	led_off (g_led_port, g_led_pin);
     d98:	67 e0       	ldi	r22, 0x07	; 7
     d9a:	81 e0       	ldi	r24, 0x01	; 1
     d9c:	54 df       	rcall	.-344    	; 0xc46 <led_off>
     d9e:	ff cf       	rjmp	.-2      	; 0xd9e <main+0x24>

00000da0 <when_transmission_complete>:
     da0:	e8 2f       	mov	r30, r24
}

PH_STATUS_t ph_get_status(uint8_t uart_number)
{
	return g_ph_status[uart_number]; 
}
     da2:	f0 e0       	ldi	r31, 0x00	; 0
     da4:	e9 5d       	subi	r30, 0xD9	; 217
     da6:	fd 4f       	sbci	r31, 0xFD	; 253
     da8:	10 82       	st	Z, r1
     daa:	e0 91 21 02 	lds	r30, 0x0221	; 0x800221 <tx_complete_cb>
     dae:	f0 91 22 02 	lds	r31, 0x0222	; 0x800222 <tx_complete_cb+0x1>
     db2:	41 e0       	ldi	r20, 0x01	; 1
     db4:	50 e0       	ldi	r21, 0x00	; 0
     db6:	60 e0       	ldi	r22, 0x00	; 0
     db8:	70 e0       	ldi	r23, 0x00	; 0
     dba:	19 95       	eicall
     dbc:	08 95       	ret

00000dbe <ph_init>:
     dbe:	cf 92       	push	r12
     dc0:	df 92       	push	r13
     dc2:	ef 92       	push	r14
     dc4:	ff 92       	push	r15
     dc6:	0f 93       	push	r16
     dc8:	cf 93       	push	r28
     dca:	c8 2f       	mov	r28, r24
     dcc:	6b 01       	movw	r12, r22
     dce:	7a 01       	movw	r14, r20
     dd0:	02 e0       	ldi	r16, 0x02	; 2
     dd2:	28 e0       	ldi	r18, 0x08	; 8
     dd4:	40 e8       	ldi	r20, 0x80	; 128
     dd6:	55 e2       	ldi	r21, 0x25	; 37
     dd8:	60 e0       	ldi	r22, 0x00	; 0
     dda:	70 e0       	ldi	r23, 0x00	; 0
     ddc:	08 d4       	rcall	.+2064   	; 0x15ee <hal_uart_init>
     dde:	61 15       	cp	r22, r1
     de0:	71 05       	cpc	r23, r1
     de2:	81 05       	cpc	r24, r1
     de4:	91 05       	cpc	r25, r1
     de6:	91 f5       	brne	.+100    	; 0xe4c <ph_init+0x8e>
     de8:	e1 14       	cp	r14, r1
     dea:	f1 04       	cpc	r15, r1
     dec:	31 f1       	breq	.+76     	; 0xe3a <ph_init+0x7c>
     dee:	c1 14       	cp	r12, r1
     df0:	d1 04       	cpc	r13, r1
     df2:	41 f1       	breq	.+80     	; 0xe44 <ph_init+0x86>
     df4:	d0 92 22 02 	sts	0x0222, r13	; 0x800222 <tx_complete_cb+0x1>
     df8:	c0 92 21 02 	sts	0x0221, r12	; 0x800221 <tx_complete_cb>
     dfc:	f0 92 24 02 	sts	0x0224, r15	; 0x800224 <rx_complete_cb+0x1>
     e00:	e0 92 23 02 	sts	0x0223, r14	; 0x800223 <rx_complete_cb>
     e04:	60 ed       	ldi	r22, 0xD0	; 208
     e06:	76 e0       	ldi	r23, 0x06	; 6
     e08:	82 e9       	ldi	r24, 0x92	; 146
     e0a:	97 e0       	ldi	r25, 0x07	; 7
     e0c:	8a d1       	rcall	.+788    	; 0x1122 <hal_uart_set_callbacks>
     e0e:	61 15       	cp	r22, r1
     e10:	71 05       	cpc	r23, r1
     e12:	81 05       	cpc	r24, r1
     e14:	91 05       	cpc	r25, r1
     e16:	d1 f4       	brne	.+52     	; 0xe4c <ph_init+0x8e>
     e18:	ec 2f       	mov	r30, r28
     e1a:	f0 e0       	ldi	r31, 0x00	; 0
     e1c:	e9 5d       	subi	r30, 0xD9	; 217
     e1e:	fd 4f       	sbci	r31, 0xFD	; 253
     e20:	10 82       	st	Z, r1
     e22:	10 92 41 02 	sts	0x0241, r1	; 0x800241 <g_packet_collector_state>
     e26:	10 92 2d 02 	sts	0x022D, r1	; 0x80022d <g_rx_buff_idx>
     e2a:	ee e2       	ldi	r30, 0x2E	; 46
     e2c:	f2 e0       	ldi	r31, 0x02	; 2
     e2e:	22 e0       	ldi	r18, 0x02	; 2
     e30:	20 83       	st	Z, r18
     e32:	21 83       	std	Z+1, r18	; 0x01
     e34:	22 83       	std	Z+2, r18	; 0x02
     e36:	23 83       	std	Z+3, r18	; 0x03
     e38:	09 c0       	rjmp	.+18     	; 0xe4c <ph_init+0x8e>
     e3a:	6c e0       	ldi	r22, 0x0C	; 12
     e3c:	70 e0       	ldi	r23, 0x00	; 0
     e3e:	80 e0       	ldi	r24, 0x00	; 0
     e40:	90 e0       	ldi	r25, 0x00	; 0
     e42:	04 c0       	rjmp	.+8      	; 0xe4c <ph_init+0x8e>
     e44:	6c e0       	ldi	r22, 0x0C	; 12
     e46:	70 e0       	ldi	r23, 0x00	; 0
     e48:	80 e0       	ldi	r24, 0x00	; 0
     e4a:	90 e0       	ldi	r25, 0x00	; 0
     e4c:	cf 91       	pop	r28
     e4e:	0f 91       	pop	r16
     e50:	ff 90       	pop	r15
     e52:	ef 90       	pop	r14
     e54:	df 90       	pop	r13
     e56:	cf 90       	pop	r12
     e58:	08 95       	ret

00000e5a <crc16>:
uint16_t crc16(uint8_t* data_p, uint8_t length)
{
	unsigned char x;
	uint16_t crc = CRC_INIT;

	while (length--)
     e5a:	7f ef       	ldi	r23, 0xFF	; 255
     e5c:	76 0f       	add	r23, r22
     e5e:	66 23       	and	r22, r22
     e60:	29 f1       	breq	.+74     	; 0xeac <crc16+0x52>
     e62:	e8 2f       	mov	r30, r24
     e64:	f9 2f       	mov	r31, r25
     e66:	4f ef       	ldi	r20, 0xFF	; 255
     e68:	5f ef       	ldi	r21, 0xFF	; 255
	{
		x = crc >> 8 ^ *data_p++;
     e6a:	21 91       	ld	r18, Z+
     e6c:	25 27       	eor	r18, r21
		x ^= x>>4;
     e6e:	32 2f       	mov	r19, r18
     e70:	32 95       	swap	r19
     e72:	3f 70       	andi	r19, 0x0F	; 15
     e74:	92 2f       	mov	r25, r18
     e76:	93 27       	eor	r25, r19
		crc = (crc << 8) ^ ((uint16_t)(x << 12)) ^ ((uint16_t)(x <<5)) ^ ((uint16_t)x);
     e78:	29 2f       	mov	r18, r25
     e7a:	30 e0       	ldi	r19, 0x00	; 0
     e7c:	54 2f       	mov	r21, r20
     e7e:	44 27       	eor	r20, r20
     e80:	42 27       	eor	r20, r18
     e82:	53 27       	eor	r21, r19
     e84:	c9 01       	movw	r24, r18
     e86:	98 2f       	mov	r25, r24
     e88:	88 27       	eor	r24, r24
     e8a:	92 95       	swap	r25
     e8c:	90 7f       	andi	r25, 0xF0	; 240
     e8e:	48 27       	eor	r20, r24
     e90:	59 27       	eor	r21, r25
     e92:	22 0f       	add	r18, r18
     e94:	33 1f       	adc	r19, r19
     e96:	22 95       	swap	r18
     e98:	32 95       	swap	r19
     e9a:	30 7f       	andi	r19, 0xF0	; 240
     e9c:	32 27       	eor	r19, r18
     e9e:	20 7f       	andi	r18, 0xF0	; 240
     ea0:	32 27       	eor	r19, r18
     ea2:	42 27       	eor	r20, r18
     ea4:	53 27       	eor	r21, r19
uint16_t crc16(uint8_t* data_p, uint8_t length)
{
	unsigned char x;
	uint16_t crc = CRC_INIT;

	while (length--)
     ea6:	71 50       	subi	r23, 0x01	; 1
     ea8:	00 f7       	brcc	.-64     	; 0xe6a <crc16+0x10>
     eaa:	02 c0       	rjmp	.+4      	; 0xeb0 <crc16+0x56>
}

uint16_t crc16(uint8_t* data_p, uint8_t length)
{
	unsigned char x;
	uint16_t crc = CRC_INIT;
     eac:	4f ef       	ldi	r20, 0xFF	; 255
     eae:	5f ef       	ldi	r21, 0xFF	; 255
		x = crc >> 8 ^ *data_p++;
		x ^= x>>4;
		crc = (crc << 8) ^ ((uint16_t)(x << 12)) ^ ((uint16_t)(x <<5)) ^ ((uint16_t)x);
	}
	return crc;
     eb0:	ca 01       	movw	r24, r20
     eb2:	08 95       	ret

00000eb4 <ph_transmit_packet>:
	} while (0);
	return err;
}

uint32_t ph_transmit_packet(uint8_t uart_number, uint8_t tx_packet_body[])
{
     eb4:	1f 93       	push	r17
     eb6:	cf 93       	push	r28
     eb8:	df 93       	push	r29
	uint32_t err = NO_ERROR;
	do
	{
		if (g_ph_status [uart_number] == PH_STATUS_TRANSMITTING)
     eba:	28 2f       	mov	r18, r24
     ebc:	30 e0       	ldi	r19, 0x00	; 0
     ebe:	d9 01       	movw	r26, r18
     ec0:	a9 5d       	subi	r26, 0xD9	; 217
     ec2:	bd 4f       	sbci	r27, 0xFD	; 253
     ec4:	9c 91       	ld	r25, X
     ec6:	91 30       	cpi	r25, 0x01	; 1
     ec8:	29 f1       	breq	.+74     	; 0xf14 <ph_transmit_packet+0x60>
		{
			err = UART_ERROR_TX_BUSY;
			break;
		}
		g_ph_status [uart_number] = PH_STATUS_TRANSMITTING;
     eca:	91 e0       	ldi	r25, 0x01	; 1
     ecc:	d9 01       	movw	r26, r18
     ece:	a9 5d       	subi	r26, 0xD9	; 217
     ed0:	bd 4f       	sbci	r27, 0xFD	; 253
     ed2:	9c 93       	st	X, r25
		if (uart_number < 0 || uart_number > 3)
     ed4:	84 30       	cpi	r24, 0x04	; 4
     ed6:	38 f0       	brcs	.+14     	; 0xee6 <ph_transmit_packet+0x32>
		{
			err=UNSUPPORTED_UART;
			g_ph_status [uart_number] = PH_STATUS_READY_TO_SEND;
     ed8:	fd 01       	movw	r30, r26
     eda:	10 82       	st	Z, r1
			break;
		}
		g_ph_status [uart_number] = PH_STATUS_TRANSMITTING;
		if (uart_number < 0 || uart_number > 3)
		{
			err=UNSUPPORTED_UART;
     edc:	65 e0       	ldi	r22, 0x05	; 5
     ede:	70 e0       	ldi	r23, 0x00	; 0
     ee0:	80 e0       	ldi	r24, 0x00	; 0
     ee2:	90 e0       	ldi	r25, 0x00	; 0
			g_ph_status [uart_number] = PH_STATUS_READY_TO_SEND;
			break;
     ee4:	1b c0       	rjmp	.+54     	; 0xf1c <ph_transmit_packet+0x68>
     ee6:	9b 01       	movw	r18, r22
     ee8:	18 2f       	mov	r17, r24
		{
			err=PACKET_BODY_LENGTH_ERROR;
			g_ph_status[uart_number] = PH_STATUS_READY_TO_SEND;
			break;
		}
		g_tx_buff[4] = length;
     eea:	ce e2       	ldi	r28, 0x2E	; 46
     eec:	d2 e0       	ldi	r29, 0x02	; 2
     eee:	85 e0       	ldi	r24, 0x05	; 5
     ef0:	8c 83       	std	Y+4, r24	; 0x04
		memcpy(g_tx_buff+5, tx_packet_body, 5);
     ef2:	fb 01       	movw	r30, r22
     ef4:	a3 e3       	ldi	r26, 0x33	; 51
     ef6:	b2 e0       	ldi	r27, 0x02	; 2
     ef8:	01 90       	ld	r0, Z+
     efa:	0d 92       	st	X+, r0
     efc:	8a 95       	dec	r24
     efe:	e1 f7       	brne	.-8      	; 0xef8 <ph_transmit_packet+0x44>
		uint8_t *CRC_arr;
		uint16_t CRC_val= crc16(tx_packet_body, length);
     f00:	65 e0       	ldi	r22, 0x05	; 5
     f02:	c9 01       	movw	r24, r18
     f04:	aa df       	rcall	.-172    	; 0xe5a <crc16>
		CRC_arr = &CRC_val;
		memcpy(g_tx_buff+5+length, CRC_arr, 2);
     f06:	9b 87       	std	Y+11, r25	; 0x0b
     f08:	8a 87       	std	Y+10, r24	; 0x0a
		err = hal_uart_send(uart_number, &g_tx_buff, length+7);
     f0a:	4c e0       	ldi	r20, 0x0C	; 12
     f0c:	be 01       	movw	r22, r28
     f0e:	81 2f       	mov	r24, r17
     f10:	10 d2       	rcall	.+1056   	; 0x1332 <hal_uart_send>
     f12:	04 c0       	rjmp	.+8      	; 0xf1c <ph_transmit_packet+0x68>
	uint32_t err = NO_ERROR;
	do
	{
		if (g_ph_status [uart_number] == PH_STATUS_TRANSMITTING)
		{
			err = UART_ERROR_TX_BUSY;
     f14:	69 e0       	ldi	r22, 0x09	; 9
     f16:	70 e0       	ldi	r23, 0x00	; 0
     f18:	80 e0       	ldi	r24, 0x00	; 0
     f1a:	90 e0       	ldi	r25, 0x00	; 0
		err = hal_uart_send(uart_number, &g_tx_buff, length+7);
		
		
	} while (0); 
	return err;
}
     f1c:	df 91       	pop	r29
     f1e:	cf 91       	pop	r28
     f20:	1f 91       	pop	r17
     f22:	08 95       	ret

00000f24 <when_byte_received>:
}



void when_byte_received(uint8_t uart_number, uint8_t data, bool parity_error)
{
     f24:	26 2f       	mov	r18, r22
	switch (g_packet_collector_state)
     f26:	40 91 41 02 	lds	r20, 0x0241	; 0x800241 <g_packet_collector_state>
     f2a:	50 e0       	ldi	r21, 0x00	; 0
     f2c:	48 30       	cpi	r20, 0x08	; 8
     f2e:	51 05       	cpc	r21, r1
     f30:	08 f0       	brcs	.+2      	; 0xf34 <when_byte_received+0x10>
     f32:	f6 c0       	rjmp	.+492    	; 0x1120 <when_byte_received+0x1fc>
     f34:	98 2f       	mov	r25, r24
     f36:	fa 01       	movw	r30, r20
     f38:	88 27       	eor	r24, r24
     f3a:	e3 58       	subi	r30, 0x83	; 131
     f3c:	ff 4f       	sbci	r31, 0xFF	; 255
     f3e:	8f 4f       	sbci	r24, 0xFF	; 255
     f40:	28 c6       	rjmp	.+3152   	; 0x1b92 <__tablejump2__>
	{
		 case PACKET_COLLECTOR_STATE_STATE_STX_1:
		 {
			 if (data == STX1)
     f42:	22 30       	cpi	r18, 0x02	; 2
     f44:	09 f0       	breq	.+2      	; 0xf48 <when_byte_received+0x24>
     f46:	ec c0       	rjmp	.+472    	; 0x1120 <when_byte_received+0x1fc>
			 {
				 g_packet_collector_uartnum = uart_number;
     f48:	90 93 0d 02 	sts	0x020D, r25	; 0x80020d <g_packet_collector_uartnum>
				 g_crc_err = NO_CRC_ERROR;
     f4c:	10 92 0c 02 	sts	0x020C, r1	; 0x80020c <g_crc_err>
				 g_packet_collector_state = PACKET_COLLECTOR_STATE_STATE_STX_2;
     f50:	81 e0       	ldi	r24, 0x01	; 1
     f52:	80 93 41 02 	sts	0x0241, r24	; 0x800241 <g_packet_collector_state>
     f56:	08 95       	ret
			 }
			 break;
		 }
		 case PACKET_COLLECTOR_STATE_STATE_STX_2:
		 {
			 if (data == STX2 && uart_number == g_packet_collector_uartnum)
     f58:	22 30       	cpi	r18, 0x02	; 2
     f5a:	71 f4       	brne	.+28     	; 0xf78 <when_byte_received+0x54>
     f5c:	80 91 0d 02 	lds	r24, 0x020D	; 0x80020d <g_packet_collector_uartnum>
     f60:	98 13       	cpse	r25, r24
     f62:	04 c0       	rjmp	.+8      	; 0xf6c <when_byte_received+0x48>
			 {
				 g_packet_collector_state = PACKET_COLLECTOR_STATE_STATE_STX_3;
     f64:	82 e0       	ldi	r24, 0x02	; 2
     f66:	80 93 41 02 	sts	0x0241, r24	; 0x800241 <g_packet_collector_state>
     f6a:	08 95       	ret
			 }
			 else
			 {
				 if (data == STX1)
				 {
					 g_packet_collector_uartnum = uart_number;
     f6c:	90 93 0d 02 	sts	0x020D, r25	; 0x80020d <g_packet_collector_uartnum>
					 g_packet_collector_state = PACKET_COLLECTOR_STATE_STATE_STX_2;
     f70:	81 e0       	ldi	r24, 0x01	; 1
     f72:	80 93 41 02 	sts	0x0241, r24	; 0x800241 <g_packet_collector_state>
     f76:	08 95       	ret
				 }
				 else
				 {
					 g_packet_collector_uartnum = NULL;
     f78:	10 92 0d 02 	sts	0x020D, r1	; 0x80020d <g_packet_collector_uartnum>
					 g_packet_collector_state = PACKET_COLLECTOR_STATE_STATE_STX_1;
     f7c:	10 92 41 02 	sts	0x0241, r1	; 0x800241 <g_packet_collector_state>
     f80:	08 95       	ret
			 }
			 break;
		 }
		 case PACKET_COLLECTOR_STATE_STATE_STX_3:
		 {
			 if (data == STX3 && uart_number == g_packet_collector_uartnum)
     f82:	22 30       	cpi	r18, 0x02	; 2
     f84:	71 f4       	brne	.+28     	; 0xfa2 <when_byte_received+0x7e>
     f86:	80 91 0d 02 	lds	r24, 0x020D	; 0x80020d <g_packet_collector_uartnum>
     f8a:	98 13       	cpse	r25, r24
     f8c:	04 c0       	rjmp	.+8      	; 0xf96 <when_byte_received+0x72>
			 {
				 g_packet_collector_state = PACKET_COLLECTOR_STATE_STATE_STX_4;
     f8e:	83 e0       	ldi	r24, 0x03	; 3
     f90:	80 93 41 02 	sts	0x0241, r24	; 0x800241 <g_packet_collector_state>
     f94:	08 95       	ret
			 }
			 else
			 {
				 if (data == STX1)
				 {
					 g_packet_collector_uartnum = uart_number;
     f96:	90 93 0d 02 	sts	0x020D, r25	; 0x80020d <g_packet_collector_uartnum>
					 g_packet_collector_state = PACKET_COLLECTOR_STATE_STATE_STX_2;
     f9a:	81 e0       	ldi	r24, 0x01	; 1
     f9c:	80 93 41 02 	sts	0x0241, r24	; 0x800241 <g_packet_collector_state>
     fa0:	08 95       	ret
				 }
				 else
				 {
					 g_packet_collector_uartnum = NULL;
     fa2:	10 92 0d 02 	sts	0x020D, r1	; 0x80020d <g_packet_collector_uartnum>
					 g_packet_collector_state = PACKET_COLLECTOR_STATE_STATE_STX_1;
     fa6:	10 92 41 02 	sts	0x0241, r1	; 0x800241 <g_packet_collector_state>
     faa:	08 95       	ret
			 }
			 break;
		 }
		 case PACKET_COLLECTOR_STATE_STATE_STX_4:
		 {
			 if (data == STX4 && uart_number == g_packet_collector_uartnum)
     fac:	22 30       	cpi	r18, 0x02	; 2
     fae:	71 f4       	brne	.+28     	; 0xfcc <when_byte_received+0xa8>
     fb0:	80 91 0d 02 	lds	r24, 0x020D	; 0x80020d <g_packet_collector_uartnum>
     fb4:	98 13       	cpse	r25, r24
     fb6:	04 c0       	rjmp	.+8      	; 0xfc0 <when_byte_received+0x9c>
			 {
				 g_packet_collector_state = PACKET_COLLECTOR_STATE_STATE_LENGTH;
     fb8:	84 e0       	ldi	r24, 0x04	; 4
     fba:	80 93 41 02 	sts	0x0241, r24	; 0x800241 <g_packet_collector_state>
     fbe:	08 95       	ret
			 }
			 else
			 {
				 if (data == STX1)
				 {
					 g_packet_collector_uartnum = uart_number;
     fc0:	90 93 0d 02 	sts	0x020D, r25	; 0x80020d <g_packet_collector_uartnum>
					 g_packet_collector_state = PACKET_COLLECTOR_STATE_STATE_STX_2;
     fc4:	81 e0       	ldi	r24, 0x01	; 1
     fc6:	80 93 41 02 	sts	0x0241, r24	; 0x800241 <g_packet_collector_state>
     fca:	08 95       	ret
				 }
				 else
				 {
					 g_packet_collector_uartnum = NULL;
     fcc:	10 92 0d 02 	sts	0x020D, r1	; 0x80020d <g_packet_collector_uartnum>
					 g_packet_collector_state = PACKET_COLLECTOR_STATE_STATE_STX_1;
     fd0:	10 92 41 02 	sts	0x0241, r1	; 0x800241 <g_packet_collector_state>
     fd4:	08 95       	ret
			 }
			 break;
		 }
		 case PACKET_COLLECTOR_STATE_STATE_LENGTH:
		 {
			 if (data < RX_PKT_BUFF_LEN && data != 0 && uart_number == g_packet_collector_uartnum)
     fd6:	8f ef       	ldi	r24, 0xFF	; 255
     fd8:	82 0f       	add	r24, r18
     fda:	8b 30       	cpi	r24, 0x0B	; 11
     fdc:	60 f4       	brcc	.+24     	; 0xff6 <when_byte_received+0xd2>
     fde:	80 91 0d 02 	lds	r24, 0x020D	; 0x80020d <g_packet_collector_uartnum>
     fe2:	98 13       	cpse	r25, r24
     fe4:	08 c0       	rjmp	.+16     	; 0xff6 <when_byte_received+0xd2>
			 {
				 g_rx_buff_idx = 0;
     fe6:	10 92 2d 02 	sts	0x022D, r1	; 0x80022d <g_rx_buff_idx>
				 g_rx_length = data;
     fea:	20 93 42 02 	sts	0x0242, r18	; 0x800242 <g_rx_length>
				 g_packet_collector_state = PACKET_COLLECTOR_STATE_STATE_DATA;
     fee:	85 e0       	ldi	r24, 0x05	; 5
     ff0:	80 93 41 02 	sts	0x0241, r24	; 0x800241 <g_packet_collector_state>
     ff4:	08 95       	ret
			 }
			 else
			 {
				 if (data == STX1)
     ff6:	22 30       	cpi	r18, 0x02	; 2
     ff8:	31 f4       	brne	.+12     	; 0x1006 <when_byte_received+0xe2>
				 {
					 g_packet_collector_uartnum = uart_number;
     ffa:	90 93 0d 02 	sts	0x020D, r25	; 0x80020d <g_packet_collector_uartnum>
					 g_packet_collector_state = PACKET_COLLECTOR_STATE_STATE_STX_2;
     ffe:	81 e0       	ldi	r24, 0x01	; 1
    1000:	80 93 41 02 	sts	0x0241, r24	; 0x800241 <g_packet_collector_state>
    1004:	08 95       	ret
				 }
				 else
				 {
					 g_packet_collector_uartnum = NULL;
    1006:	10 92 0d 02 	sts	0x020D, r1	; 0x80020d <g_packet_collector_uartnum>
					 g_packet_collector_state = PACKET_COLLECTOR_STATE_STATE_STX_1;
    100a:	10 92 41 02 	sts	0x0241, r1	; 0x800241 <g_packet_collector_state>
    100e:	08 95       	ret
			 }
			 break;
		 }
		 case PACKET_COLLECTOR_STATE_STATE_DATA:
		 {
			 if (g_rx_buff_idx < (g_rx_length-1) && uart_number == g_packet_collector_uartnum)
    1010:	80 91 2d 02 	lds	r24, 0x022D	; 0x80022d <g_rx_buff_idx>
    1014:	e8 2f       	mov	r30, r24
    1016:	f0 e0       	ldi	r31, 0x00	; 0
    1018:	60 91 42 02 	lds	r22, 0x0242	; 0x800242 <g_rx_length>
    101c:	46 2f       	mov	r20, r22
    101e:	50 e0       	ldi	r21, 0x00	; 0
    1020:	41 50       	subi	r20, 0x01	; 1
    1022:	51 09       	sbc	r21, r1
    1024:	e4 17       	cp	r30, r20
    1026:	f5 07       	cpc	r31, r21
    1028:	5c f4       	brge	.+22     	; 0x1040 <when_byte_received+0x11c>
    102a:	30 91 0d 02 	lds	r19, 0x020D	; 0x80020d <g_packet_collector_uartnum>
    102e:	93 13       	cpse	r25, r19
    1030:	1e c0       	rjmp	.+60     	; 0x106e <when_byte_received+0x14a>
			 {
				 g_rx_packet_buffer[g_rx_buff_idx] = data;
    1032:	ed 5b       	subi	r30, 0xBD	; 189
    1034:	fd 4f       	sbci	r31, 0xFD	; 253
    1036:	20 83       	st	Z, r18
				 g_rx_buff_idx ++;
    1038:	8f 5f       	subi	r24, 0xFF	; 255
    103a:	80 93 2d 02 	sts	0x022D, r24	; 0x80022d <g_rx_buff_idx>
    103e:	08 95       	ret
			 }
			 else if (g_rx_buff_idx == (g_rx_length-1) && uart_number == g_packet_collector_uartnum)
    1040:	e4 17       	cp	r30, r20
    1042:	f5 07       	cpc	r31, r21
    1044:	a1 f4       	brne	.+40     	; 0x106e <when_byte_received+0x14a>
    1046:	80 91 0d 02 	lds	r24, 0x020D	; 0x80020d <g_packet_collector_uartnum>
    104a:	98 13       	cpse	r25, r24
    104c:	10 c0       	rjmp	.+32     	; 0x106e <when_byte_received+0x14a>
			 {
				 g_rx_packet_buffer[g_rx_buff_idx] = data;
    104e:	ed 5b       	subi	r30, 0xBD	; 189
    1050:	fd 4f       	sbci	r31, 0xFD	; 253
    1052:	20 83       	st	Z, r18
				 g_rx_buff_idx = 0;
    1054:	10 92 2d 02 	sts	0x022D, r1	; 0x80022d <g_rx_buff_idx>
				 g_packet_collector_state = PACKET_COLLECTOR_STATE_STATE_CRC_L;
    1058:	86 e0       	ldi	r24, 0x06	; 6
    105a:	80 93 41 02 	sts	0x0241, r24	; 0x800241 <g_packet_collector_state>
				 g_cal_crc = crc16(g_rx_packet_buffer, g_rx_length);
    105e:	83 e4       	ldi	r24, 0x43	; 67
    1060:	92 e0       	ldi	r25, 0x02	; 2
    1062:	fb de       	rcall	.-522    	; 0xe5a <crc16>
    1064:	90 93 26 02 	sts	0x0226, r25	; 0x800226 <g_cal_crc+0x1>
    1068:	80 93 25 02 	sts	0x0225, r24	; 0x800225 <g_cal_crc>
    106c:	08 95       	ret
			 }
			 else
			 {
				 if (data == STX1)
    106e:	22 30       	cpi	r18, 0x02	; 2
    1070:	31 f4       	brne	.+12     	; 0x107e <when_byte_received+0x15a>
				 {
					 g_packet_collector_uartnum = uart_number;
    1072:	90 93 0d 02 	sts	0x020D, r25	; 0x80020d <g_packet_collector_uartnum>
					 g_packet_collector_state = PACKET_COLLECTOR_STATE_STATE_STX_2;
    1076:	81 e0       	ldi	r24, 0x01	; 1
    1078:	80 93 41 02 	sts	0x0241, r24	; 0x800241 <g_packet_collector_state>
    107c:	08 95       	ret
					 
				 }
				 else
				 {
					 g_packet_collector_uartnum = NULL;
    107e:	10 92 0d 02 	sts	0x020D, r1	; 0x80020d <g_packet_collector_uartnum>
					 g_packet_collector_state = PACKET_COLLECTOR_STATE_STATE_STX_1;
    1082:	10 92 41 02 	sts	0x0241, r1	; 0x800241 <g_packet_collector_state>
    1086:	08 95       	ret
			 }
			 break;
		 }
		 case PACKET_COLLECTOR_STATE_STATE_CRC_L:
		 {
			 if (uart_number == g_packet_collector_uartnum)
    1088:	80 91 0d 02 	lds	r24, 0x020D	; 0x80020d <g_packet_collector_uartnum>
    108c:	98 13       	cpse	r25, r24
    108e:	10 c0       	rjmp	.+32     	; 0x10b0 <when_byte_received+0x18c>
			 {
				 if (data != (0x00FF & g_cal_crc))
    1090:	30 e0       	ldi	r19, 0x00	; 0
    1092:	80 91 25 02 	lds	r24, 0x0225	; 0x800225 <g_cal_crc>
    1096:	90 91 26 02 	lds	r25, 0x0226	; 0x800226 <g_cal_crc+0x1>
    109a:	99 27       	eor	r25, r25
    109c:	28 17       	cp	r18, r24
    109e:	39 07       	cpc	r19, r25
    10a0:	19 f0       	breq	.+6      	; 0x10a8 <when_byte_received+0x184>
				 {
					 g_crc_err=CRC_ERROR_DETECTED;
    10a2:	81 e0       	ldi	r24, 0x01	; 1
    10a4:	80 93 0c 02 	sts	0x020C, r24	; 0x80020c <g_crc_err>
				 }
				 g_packet_collector_state = PACKET_COLLECTOR_STATE_STATE_CRC_H;
    10a8:	87 e0       	ldi	r24, 0x07	; 7
    10aa:	80 93 41 02 	sts	0x0241, r24	; 0x800241 <g_packet_collector_state>
    10ae:	08 95       	ret
			 }
			 else
			 {
				 if (data == STX1)
    10b0:	22 30       	cpi	r18, 0x02	; 2
    10b2:	31 f4       	brne	.+12     	; 0x10c0 <when_byte_received+0x19c>
				 {
					 g_packet_collector_uartnum = uart_number;
    10b4:	90 93 0d 02 	sts	0x020D, r25	; 0x80020d <g_packet_collector_uartnum>
					 g_packet_collector_state = PACKET_COLLECTOR_STATE_STATE_STX_2;
    10b8:	81 e0       	ldi	r24, 0x01	; 1
    10ba:	80 93 41 02 	sts	0x0241, r24	; 0x800241 <g_packet_collector_state>
    10be:	08 95       	ret
				 }
				 else
				 {
					 g_packet_collector_uartnum = NULL;
    10c0:	10 92 0d 02 	sts	0x020D, r1	; 0x80020d <g_packet_collector_uartnum>
					 g_packet_collector_state = PACKET_COLLECTOR_STATE_STATE_STX_1;
    10c4:	10 92 41 02 	sts	0x0241, r1	; 0x800241 <g_packet_collector_state>
    10c8:	08 95       	ret
			 }
			 break;
		 }
		 case PACKET_COLLECTOR_STATE_STATE_CRC_H:
		 {
			 if (uart_number == g_packet_collector_uartnum)
    10ca:	80 91 0d 02 	lds	r24, 0x020D	; 0x80020d <g_packet_collector_uartnum>
    10ce:	98 13       	cpse	r25, r24
    10d0:	1b c0       	rjmp	.+54     	; 0x1108 <when_byte_received+0x1e4>
			 {
				 if (data != ((0xFF00 & g_cal_crc)>>8))
    10d2:	30 e0       	ldi	r19, 0x00	; 0
    10d4:	40 91 26 02 	lds	r20, 0x0226	; 0x800226 <g_cal_crc+0x1>
    10d8:	50 e0       	ldi	r21, 0x00	; 0
    10da:	24 17       	cp	r18, r20
    10dc:	35 07       	cpc	r19, r21
    10de:	19 f0       	breq	.+6      	; 0x10e6 <when_byte_received+0x1c2>
				 {
					 g_crc_err=CRC_ERROR_DETECTED;
    10e0:	81 e0       	ldi	r24, 0x01	; 1
    10e2:	80 93 0c 02 	sts	0x020C, r24	; 0x80020c <g_crc_err>
				 }
				 g_packet_collector_state = PACKET_COLLECTOR_STATE_STATE_STX_1;
    10e6:	10 92 41 02 	sts	0x0241, r1	; 0x800241 <g_packet_collector_state>
				 if (rx_complete_cb != NULL)
    10ea:	e0 91 23 02 	lds	r30, 0x0223	; 0x800223 <rx_complete_cb>
    10ee:	f0 91 24 02 	lds	r31, 0x0224	; 0x800224 <rx_complete_cb+0x1>
    10f2:	30 97       	sbiw	r30, 0x00	; 0
    10f4:	31 f0       	breq	.+12     	; 0x1102 <when_byte_received+0x1de>
				 {
					 rx_complete_cb(uart_number,g_rx_packet_buffer,g_crc_err);
    10f6:	40 91 0c 02 	lds	r20, 0x020C	; 0x80020c <g_crc_err>
    10fa:	63 e4       	ldi	r22, 0x43	; 67
    10fc:	72 e0       	ldi	r23, 0x02	; 2
    10fe:	89 2f       	mov	r24, r25
    1100:	19 95       	eicall
				 }
				 g_crc_err=NO_CRC_ERROR;
    1102:	10 92 0c 02 	sts	0x020C, r1	; 0x80020c <g_crc_err>
    1106:	08 95       	ret
			 }
			 else
			 {
				 if (data == STX1)
    1108:	22 30       	cpi	r18, 0x02	; 2
    110a:	31 f4       	brne	.+12     	; 0x1118 <when_byte_received+0x1f4>
				 {
					 g_packet_collector_uartnum = uart_number;
    110c:	90 93 0d 02 	sts	0x020D, r25	; 0x80020d <g_packet_collector_uartnum>
					 g_packet_collector_state = PACKET_COLLECTOR_STATE_STATE_STX_2;
    1110:	81 e0       	ldi	r24, 0x01	; 1
    1112:	80 93 41 02 	sts	0x0241, r24	; 0x800241 <g_packet_collector_state>
    1116:	08 95       	ret
				 }
				 else
				 {
					 g_packet_collector_uartnum = NULL;
    1118:	10 92 0d 02 	sts	0x020D, r1	; 0x80020d <g_packet_collector_uartnum>
					 g_packet_collector_state = PACKET_COLLECTOR_STATE_STATE_STX_1;
    111c:	10 92 41 02 	sts	0x0241, r1	; 0x800241 <g_packet_collector_state>
    1120:	08 95       	ret

00001122 <hal_uart_set_callbacks>:
uint32_t hal_uart_set_callbacks(on_byte_received obr, on_transmission_complete otc)
{	
	uint32_t err = NO_ERROR;
	do 
	{
		if (obr == NULL || otc == NULL)
    1122:	00 97       	sbiw	r24, 0x00	; 0
    1124:	79 f0       	breq	.+30     	; 0x1144 <hal_uart_set_callbacks+0x22>
    1126:	61 15       	cp	r22, r1
    1128:	71 05       	cpc	r23, r1
    112a:	89 f0       	breq	.+34     	; 0x114e <hal_uart_set_callbacks+0x2c>
		{
			err=DRIV_CALLBACK_MISSING;
			break;
		}
		g_on_byte_received = obr;
    112c:	90 93 1e 02 	sts	0x021E, r25	; 0x80021e <g_on_byte_received+0x1>
    1130:	80 93 1d 02 	sts	0x021D, r24	; 0x80021d <g_on_byte_received>
		g_on_transmission_complete = otc;
    1134:	70 93 1c 02 	sts	0x021C, r23	; 0x80021c <g_on_transmission_complete+0x1>
    1138:	60 93 1b 02 	sts	0x021B, r22	; 0x80021b <g_on_transmission_complete>
	return err;
}

uint32_t hal_uart_set_callbacks(on_byte_received obr, on_transmission_complete otc)
{	
	uint32_t err = NO_ERROR;
    113c:	60 e0       	ldi	r22, 0x00	; 0
    113e:	70 e0       	ldi	r23, 0x00	; 0
    1140:	cb 01       	movw	r24, r22
    1142:	08 95       	ret
	do 
	{
		if (obr == NULL || otc == NULL)
		{
			err=DRIV_CALLBACK_MISSING;
    1144:	68 e0       	ldi	r22, 0x08	; 8
    1146:	70 e0       	ldi	r23, 0x00	; 0
    1148:	80 e0       	ldi	r24, 0x00	; 0
    114a:	90 e0       	ldi	r25, 0x00	; 0
    114c:	08 95       	ret
    114e:	68 e0       	ldi	r22, 0x08	; 8
    1150:	70 e0       	ldi	r23, 0x00	; 0
    1152:	80 e0       	ldi	r24, 0x00	; 0
    1154:	90 e0       	ldi	r25, 0x00	; 0
		g_on_byte_received = obr;
		g_on_transmission_complete = otc;
	}while (0);
		
	return err;
}
    1156:	08 95       	ret

00001158 <map_uart_registers>:
uint32_t map_uart_registers(uint8_t uart_number)
{
	uint32_t err = NO_ERROR;
	do 
	{	
		if (uart_number > 3)
    1158:	84 30       	cpi	r24, 0x04	; 4
    115a:	08 f0       	brcs	.+2      	; 0x115e <map_uart_registers+0x6>
    115c:	aa c0       	rjmp	.+340    	; 0x12b2 <map_uart_registers+0x15a>
		{
			err = UNSUPPORTED_UART;
			break;
		}
		
		switch (uart_number)
    115e:	81 30       	cpi	r24, 0x01	; 1
    1160:	81 f1       	breq	.+96     	; 0x11c2 <map_uart_registers+0x6a>
    1162:	38 f0       	brcs	.+14     	; 0x1172 <map_uart_registers+0x1a>
    1164:	82 30       	cpi	r24, 0x02	; 2
    1166:	09 f4       	brne	.+2      	; 0x116a <map_uart_registers+0x12>
    1168:	54 c0       	rjmp	.+168    	; 0x1212 <map_uart_registers+0xba>
    116a:	83 30       	cpi	r24, 0x03	; 3
    116c:	09 f4       	brne	.+2      	; 0x1170 <map_uart_registers+0x18>
    116e:	79 c0       	rjmp	.+242    	; 0x1262 <map_uart_registers+0x10a>
    1170:	a5 c0       	rjmp	.+330    	; 0x12bc <map_uart_registers+0x164>
		{
			case 0:
			{
				UCSRnA = &UCSR0A;
    1172:	80 ec       	ldi	r24, 0xC0	; 192
    1174:	90 e0       	ldi	r25, 0x00	; 0
    1176:	90 93 1a 02 	sts	0x021A, r25	; 0x80021a <UCSRnA+0x1>
    117a:	80 93 19 02 	sts	0x0219, r24	; 0x800219 <UCSRnA>
				UCSRnB = &UCSR0B;
    117e:	81 ec       	ldi	r24, 0xC1	; 193
    1180:	90 e0       	ldi	r25, 0x00	; 0
    1182:	90 93 18 02 	sts	0x0218, r25	; 0x800218 <UCSRnB+0x1>
    1186:	80 93 17 02 	sts	0x0217, r24	; 0x800217 <UCSRnB>
				UCSRnC = &UCSR0C;
    118a:	82 ec       	ldi	r24, 0xC2	; 194
    118c:	90 e0       	ldi	r25, 0x00	; 0
    118e:	90 93 16 02 	sts	0x0216, r25	; 0x800216 <UCSRnC+0x1>
    1192:	80 93 15 02 	sts	0x0215, r24	; 0x800215 <UCSRnC>
				UBRRnL = &UBRR0L;
    1196:	84 ec       	ldi	r24, 0xC4	; 196
    1198:	90 e0       	ldi	r25, 0x00	; 0
    119a:	90 93 14 02 	sts	0x0214, r25	; 0x800214 <UBRRnL+0x1>
    119e:	80 93 13 02 	sts	0x0213, r24	; 0x800213 <UBRRnL>
				UBRRnH = &UBRR0H;
    11a2:	85 ec       	ldi	r24, 0xC5	; 197
    11a4:	90 e0       	ldi	r25, 0x00	; 0
    11a6:	90 93 12 02 	sts	0x0212, r25	; 0x800212 <UBRRnH+0x1>
    11aa:	80 93 11 02 	sts	0x0211, r24	; 0x800211 <UBRRnH>
				UDRn = &UDR0;
    11ae:	86 ec       	ldi	r24, 0xC6	; 198
    11b0:	90 e0       	ldi	r25, 0x00	; 0
    11b2:	90 93 10 02 	sts	0x0210, r25	; 0x800210 <UDRn+0x1>
    11b6:	80 93 0f 02 	sts	0x020F, r24	; 0x80020f <UDRn>
	sei();
}

uint32_t map_uart_registers(uint8_t uart_number)
{
	uint32_t err = NO_ERROR;
    11ba:	60 e0       	ldi	r22, 0x00	; 0
    11bc:	70 e0       	ldi	r23, 0x00	; 0
    11be:	cb 01       	movw	r24, r22
				UCSRnB = &UCSR0B;
				UCSRnC = &UCSR0C;
				UBRRnL = &UBRR0L;
				UBRRnH = &UBRR0H;
				UDRn = &UDR0;
				break;
    11c0:	08 95       	ret
			}
			case 1:
			{
				UCSRnA = &UCSR1A;
    11c2:	88 ec       	ldi	r24, 0xC8	; 200
    11c4:	90 e0       	ldi	r25, 0x00	; 0
    11c6:	90 93 1a 02 	sts	0x021A, r25	; 0x80021a <UCSRnA+0x1>
    11ca:	80 93 19 02 	sts	0x0219, r24	; 0x800219 <UCSRnA>
				UCSRnB = &UCSR1B;
    11ce:	89 ec       	ldi	r24, 0xC9	; 201
    11d0:	90 e0       	ldi	r25, 0x00	; 0
    11d2:	90 93 18 02 	sts	0x0218, r25	; 0x800218 <UCSRnB+0x1>
    11d6:	80 93 17 02 	sts	0x0217, r24	; 0x800217 <UCSRnB>
				UCSRnC = &UCSR1C;
    11da:	8a ec       	ldi	r24, 0xCA	; 202
    11dc:	90 e0       	ldi	r25, 0x00	; 0
    11de:	90 93 16 02 	sts	0x0216, r25	; 0x800216 <UCSRnC+0x1>
    11e2:	80 93 15 02 	sts	0x0215, r24	; 0x800215 <UCSRnC>
				UBRRnL = &UBRR1L;
    11e6:	8c ec       	ldi	r24, 0xCC	; 204
    11e8:	90 e0       	ldi	r25, 0x00	; 0
    11ea:	90 93 14 02 	sts	0x0214, r25	; 0x800214 <UBRRnL+0x1>
    11ee:	80 93 13 02 	sts	0x0213, r24	; 0x800213 <UBRRnL>
				UBRRnH = &UBRR1H;
    11f2:	8d ec       	ldi	r24, 0xCD	; 205
    11f4:	90 e0       	ldi	r25, 0x00	; 0
    11f6:	90 93 12 02 	sts	0x0212, r25	; 0x800212 <UBRRnH+0x1>
    11fa:	80 93 11 02 	sts	0x0211, r24	; 0x800211 <UBRRnH>
				UDRn = &UDR1;
    11fe:	8e ec       	ldi	r24, 0xCE	; 206
    1200:	90 e0       	ldi	r25, 0x00	; 0
    1202:	90 93 10 02 	sts	0x0210, r25	; 0x800210 <UDRn+0x1>
    1206:	80 93 0f 02 	sts	0x020F, r24	; 0x80020f <UDRn>
	sei();
}

uint32_t map_uart_registers(uint8_t uart_number)
{
	uint32_t err = NO_ERROR;
    120a:	60 e0       	ldi	r22, 0x00	; 0
    120c:	70 e0       	ldi	r23, 0x00	; 0
    120e:	cb 01       	movw	r24, r22
				UCSRnB = &UCSR1B;
				UCSRnC = &UCSR1C;
				UBRRnL = &UBRR1L;
				UBRRnH = &UBRR1H;
				UDRn = &UDR1;
				break;
    1210:	08 95       	ret
			}
			case 2:
			{
				UCSRnA = &UCSR2A;
    1212:	80 ed       	ldi	r24, 0xD0	; 208
    1214:	90 e0       	ldi	r25, 0x00	; 0
    1216:	90 93 1a 02 	sts	0x021A, r25	; 0x80021a <UCSRnA+0x1>
    121a:	80 93 19 02 	sts	0x0219, r24	; 0x800219 <UCSRnA>
				UCSRnB = &UCSR2B;
    121e:	81 ed       	ldi	r24, 0xD1	; 209
    1220:	90 e0       	ldi	r25, 0x00	; 0
    1222:	90 93 18 02 	sts	0x0218, r25	; 0x800218 <UCSRnB+0x1>
    1226:	80 93 17 02 	sts	0x0217, r24	; 0x800217 <UCSRnB>
				UCSRnC = &UCSR2C;
    122a:	82 ed       	ldi	r24, 0xD2	; 210
    122c:	90 e0       	ldi	r25, 0x00	; 0
    122e:	90 93 16 02 	sts	0x0216, r25	; 0x800216 <UCSRnC+0x1>
    1232:	80 93 15 02 	sts	0x0215, r24	; 0x800215 <UCSRnC>
				UBRRnL = &UBRR2L;
    1236:	84 ed       	ldi	r24, 0xD4	; 212
    1238:	90 e0       	ldi	r25, 0x00	; 0
    123a:	90 93 14 02 	sts	0x0214, r25	; 0x800214 <UBRRnL+0x1>
    123e:	80 93 13 02 	sts	0x0213, r24	; 0x800213 <UBRRnL>
				UBRRnH = &UBRR2H;
    1242:	85 ed       	ldi	r24, 0xD5	; 213
    1244:	90 e0       	ldi	r25, 0x00	; 0
    1246:	90 93 12 02 	sts	0x0212, r25	; 0x800212 <UBRRnH+0x1>
    124a:	80 93 11 02 	sts	0x0211, r24	; 0x800211 <UBRRnH>
				UDRn = &UDR2;
    124e:	86 ed       	ldi	r24, 0xD6	; 214
    1250:	90 e0       	ldi	r25, 0x00	; 0
    1252:	90 93 10 02 	sts	0x0210, r25	; 0x800210 <UDRn+0x1>
    1256:	80 93 0f 02 	sts	0x020F, r24	; 0x80020f <UDRn>
	sei();
}

uint32_t map_uart_registers(uint8_t uart_number)
{
	uint32_t err = NO_ERROR;
    125a:	60 e0       	ldi	r22, 0x00	; 0
    125c:	70 e0       	ldi	r23, 0x00	; 0
    125e:	cb 01       	movw	r24, r22
				UCSRnB = &UCSR2B;
				UCSRnC = &UCSR2C;
				UBRRnL = &UBRR2L;
				UBRRnH = &UBRR2H;
				UDRn = &UDR2;
				break;
    1260:	08 95       	ret
			}
			case 3:
			{
				UCSRnA = &UCSR3A;
    1262:	80 e3       	ldi	r24, 0x30	; 48
    1264:	91 e0       	ldi	r25, 0x01	; 1
    1266:	90 93 1a 02 	sts	0x021A, r25	; 0x80021a <UCSRnA+0x1>
    126a:	80 93 19 02 	sts	0x0219, r24	; 0x800219 <UCSRnA>
				UCSRnB = &UCSR3B;
    126e:	81 e3       	ldi	r24, 0x31	; 49
    1270:	91 e0       	ldi	r25, 0x01	; 1
    1272:	90 93 18 02 	sts	0x0218, r25	; 0x800218 <UCSRnB+0x1>
    1276:	80 93 17 02 	sts	0x0217, r24	; 0x800217 <UCSRnB>
				UCSRnC = &UCSR3C;
    127a:	82 e3       	ldi	r24, 0x32	; 50
    127c:	91 e0       	ldi	r25, 0x01	; 1
    127e:	90 93 16 02 	sts	0x0216, r25	; 0x800216 <UCSRnC+0x1>
    1282:	80 93 15 02 	sts	0x0215, r24	; 0x800215 <UCSRnC>
				UBRRnL = &UBRR3L;
    1286:	84 e3       	ldi	r24, 0x34	; 52
    1288:	91 e0       	ldi	r25, 0x01	; 1
    128a:	90 93 14 02 	sts	0x0214, r25	; 0x800214 <UBRRnL+0x1>
    128e:	80 93 13 02 	sts	0x0213, r24	; 0x800213 <UBRRnL>
				UBRRnH = &UBRR3H;
    1292:	85 e3       	ldi	r24, 0x35	; 53
    1294:	91 e0       	ldi	r25, 0x01	; 1
    1296:	90 93 12 02 	sts	0x0212, r25	; 0x800212 <UBRRnH+0x1>
    129a:	80 93 11 02 	sts	0x0211, r24	; 0x800211 <UBRRnH>
				UDRn = &UDR3;
    129e:	86 e3       	ldi	r24, 0x36	; 54
    12a0:	91 e0       	ldi	r25, 0x01	; 1
    12a2:	90 93 10 02 	sts	0x0210, r25	; 0x800210 <UDRn+0x1>
    12a6:	80 93 0f 02 	sts	0x020F, r24	; 0x80020f <UDRn>
	sei();
}

uint32_t map_uart_registers(uint8_t uart_number)
{
	uint32_t err = NO_ERROR;
    12aa:	60 e0       	ldi	r22, 0x00	; 0
    12ac:	70 e0       	ldi	r23, 0x00	; 0
    12ae:	cb 01       	movw	r24, r22
				UCSRnB = &UCSR3B;
				UCSRnC = &UCSR3C;
				UBRRnL = &UBRR3L;
				UBRRnH = &UBRR3H;
				UDRn = &UDR3;
				break;
    12b0:	08 95       	ret
	uint32_t err = NO_ERROR;
	do 
	{	
		if (uart_number > 3)
		{
			err = UNSUPPORTED_UART;
    12b2:	65 e0       	ldi	r22, 0x05	; 5
    12b4:	70 e0       	ldi	r23, 0x00	; 0
    12b6:	80 e0       	ldi	r24, 0x00	; 0
    12b8:	90 e0       	ldi	r25, 0x00	; 0
    12ba:	08 95       	ret
	sei();
}

uint32_t map_uart_registers(uint8_t uart_number)
{
	uint32_t err = NO_ERROR;
    12bc:	60 e0       	ldi	r22, 0x00	; 0
    12be:	70 e0       	ldi	r23, 0x00	; 0
    12c0:	cb 01       	movw	r24, r22
			}
		}
	} while (0);
		
	return err;
}
    12c2:	08 95       	ret

000012c4 <on_trasmit_buffer_empty>:

/////////////////////////Private Functions////////////////////

void on_trasmit_buffer_empty (uint8_t uart_number)
{	
	cli();
    12c4:	f8 94       	cli
	map_uart_registers(uart_number);
    12c6:	48 df       	rcall	.-368    	; 0x1158 <map_uart_registers>
	if (g_tx_buff_idx < g_bytes_to_be_tx  && g_tx_busy)
    12c8:	e0 91 4f 02 	lds	r30, 0x024F	; 0x80024f <g_tx_buff_idx>
    12cc:	80 91 50 02 	lds	r24, 0x0250	; 0x800250 <g_bytes_to_be_tx>
    12d0:	e8 17       	cp	r30, r24
    12d2:	00 f5       	brcc	.+64     	; 0x1314 <on_trasmit_buffer_empty+0x50>
    12d4:	80 91 0e 02 	lds	r24, 0x020E	; 0x80020e <g_tx_busy>
    12d8:	88 23       	and	r24, r24
    12da:	49 f1       	breq	.+82     	; 0x132e <on_trasmit_buffer_empty+0x6a>
	{	
		if ( (*UCSRnA) & (1<<UDREn))
    12dc:	a0 91 19 02 	lds	r26, 0x0219	; 0x800219 <UCSRnA>
    12e0:	b0 91 1a 02 	lds	r27, 0x021A	; 0x80021a <UCSRnA+0x1>
    12e4:	8c 91       	ld	r24, X
    12e6:	85 ff       	sbrs	r24, 5
    12e8:	22 c0       	rjmp	.+68     	; 0x132e <on_trasmit_buffer_empty+0x6a>
		{
			*UDRn = g_internal_tx_buff[g_tx_buff_idx++];
    12ea:	a0 91 0f 02 	lds	r26, 0x020F	; 0x80020f <UDRn>
    12ee:	b0 91 10 02 	lds	r27, 0x0210	; 0x800210 <UDRn+0x1>
    12f2:	81 e0       	ldi	r24, 0x01	; 1
    12f4:	8e 0f       	add	r24, r30
    12f6:	80 93 4f 02 	sts	0x024F, r24	; 0x80024f <g_tx_buff_idx>
    12fa:	f0 e0       	ldi	r31, 0x00	; 0
    12fc:	ef 5a       	subi	r30, 0xAF	; 175
    12fe:	fd 4f       	sbci	r31, 0xFD	; 253
    1300:	80 81       	ld	r24, Z
    1302:	8c 93       	st	X, r24
			(*UCSRnA) &= ~(1<<UDREn);
    1304:	e0 91 19 02 	lds	r30, 0x0219	; 0x800219 <UCSRnA>
    1308:	f0 91 1a 02 	lds	r31, 0x021A	; 0x80021a <UCSRnA+0x1>
    130c:	80 81       	ld	r24, Z
    130e:	8f 7d       	andi	r24, 0xDF	; 223
    1310:	80 83       	st	Z, r24
    1312:	0d c0       	rjmp	.+26     	; 0x132e <on_trasmit_buffer_empty+0x6a>
		}
	}
	else if (g_tx_buff_idx == g_bytes_to_be_tx  && g_tx_busy)
    1314:	e8 13       	cpse	r30, r24
    1316:	0b c0       	rjmp	.+22     	; 0x132e <on_trasmit_buffer_empty+0x6a>
    1318:	80 91 0e 02 	lds	r24, 0x020E	; 0x80020e <g_tx_busy>
    131c:	88 23       	and	r24, r24
    131e:	39 f0       	breq	.+14     	; 0x132e <on_trasmit_buffer_empty+0x6a>
	{
		(*UCSRnB) &= ~(1<<UDRIEn); //disable Tx buffer empty interrupt
    1320:	e0 91 17 02 	lds	r30, 0x0217	; 0x800217 <UCSRnB>
    1324:	f0 91 18 02 	lds	r31, 0x0218	; 0x800218 <UCSRnB+0x1>
    1328:	80 81       	ld	r24, Z
    132a:	8f 7d       	andi	r24, 0xDF	; 223
    132c:	80 83       	st	Z, r24
	}
	sei();
    132e:	78 94       	sei
    1330:	08 95       	ret

00001332 <hal_uart_send>:
		
	return err;
}

uint32_t hal_uart_send(uint8_t uart_number, uint8_t *tx_buffer, uint8_t length)
{	
    1332:	0f 93       	push	r16
    1334:	1f 93       	push	r17
    1336:	cf 93       	push	r28
    1338:	df 93       	push	r29
    133a:	d8 2f       	mov	r29, r24
    133c:	8b 01       	movw	r16, r22
    133e:	c4 2f       	mov	r28, r20
	uint32_t err = NO_ERROR;
	do 
	{	
		if(length == 0)
    1340:	41 11       	cpse	r20, r1
    1342:	0c c0       	rjmp	.+24     	; 0x135c <hal_uart_send+0x2a>
		{
			err = TX_ARRAY_LENGTH_ZERO_WARNING;
			if (g_on_transmission_complete != NULL)
    1344:	e0 91 1b 02 	lds	r30, 0x021B	; 0x80021b <g_on_transmission_complete>
    1348:	f0 91 1c 02 	lds	r31, 0x021C	; 0x80021c <g_on_transmission_complete+0x1>
    134c:	30 97       	sbiw	r30, 0x00	; 0
    134e:	61 f1       	breq	.+88     	; 0x13a8 <hal_uart_send+0x76>
			{
				g_on_transmission_complete(uart_number);
    1350:	19 95       	eicall
	uint32_t err = NO_ERROR;
	do 
	{	
		if(length == 0)
		{
			err = TX_ARRAY_LENGTH_ZERO_WARNING;
    1352:	6b e0       	ldi	r22, 0x0B	; 11
    1354:	70 e0       	ldi	r23, 0x00	; 0
    1356:	80 e0       	ldi	r24, 0x00	; 0
    1358:	90 e0       	ldi	r25, 0x00	; 0
    135a:	39 c0       	rjmp	.+114    	; 0x13ce <hal_uart_send+0x9c>
			{
				g_on_transmission_complete(uart_number);
			}
			break;
		}		
		if(g_tx_busy)
    135c:	80 91 0e 02 	lds	r24, 0x020E	; 0x80020e <g_tx_busy>
    1360:	81 11       	cpse	r24, r1
    1362:	27 c0       	rjmp	.+78     	; 0x13b2 <hal_uart_send+0x80>
		{
			err = UART_ERROR_TX_BUSY;
			break;
		}
		if (map_uart_registers(uart_number))
    1364:	8d 2f       	mov	r24, r29
    1366:	f8 de       	rcall	.-528    	; 0x1158 <map_uart_registers>
    1368:	67 2b       	or	r22, r23
    136a:	68 2b       	or	r22, r24
    136c:	69 2b       	or	r22, r25
    136e:	31 f5       	brne	.+76     	; 0x13bc <hal_uart_send+0x8a>
		{
			err = UNSUPPORTED_UART;
			break;
		}
		if (INT_TX_BUFF_LEN < length)
    1370:	c5 31       	cpi	r28, 0x15	; 21
    1372:	48 f5       	brcc	.+82     	; 0x13c6 <hal_uart_send+0x94>
		{
			err = TX_ARRAY_ERROR;
			break;
		}
		g_tx_busy = true;
    1374:	81 e0       	ldi	r24, 0x01	; 1
    1376:	80 93 0e 02 	sts	0x020E, r24	; 0x80020e <g_tx_busy>
		memcpy(g_internal_tx_buff, tx_buffer, length);
    137a:	4c 2f       	mov	r20, r28
    137c:	50 e0       	ldi	r21, 0x00	; 0
    137e:	b8 01       	movw	r22, r16
    1380:	81 e5       	ldi	r24, 0x51	; 81
    1382:	92 e0       	ldi	r25, 0x02	; 2
    1384:	0e d4       	rcall	.+2076   	; 0x1ba2 <memcpy>
		g_bytes_to_be_tx = length;
    1386:	c0 93 50 02 	sts	0x0250, r28	; 0x800250 <g_bytes_to_be_tx>
		g_tx_buff_idx = 0;
    138a:	10 92 4f 02 	sts	0x024F, r1	; 0x80024f <g_tx_buff_idx>
		on_trasmit_buffer_empty (uart_number);
    138e:	8d 2f       	mov	r24, r29
    1390:	99 df       	rcall	.-206    	; 0x12c4 <on_trasmit_buffer_empty>
		(*UCSRnB) |= (1<<UDRIEn) | (1<<TXCIEn); //enable Tx buffer empty interrupt
    1392:	e0 91 17 02 	lds	r30, 0x0217	; 0x800217 <UCSRnB>
    1396:	f0 91 18 02 	lds	r31, 0x0218	; 0x800218 <UCSRnB+0x1>
    139a:	80 81       	ld	r24, Z
    139c:	80 66       	ori	r24, 0x60	; 96
    139e:	80 83       	st	Z, r24
	return err;
}

uint32_t hal_uart_send(uint8_t uart_number, uint8_t *tx_buffer, uint8_t length)
{	
	uint32_t err = NO_ERROR;
    13a0:	60 e0       	ldi	r22, 0x00	; 0
    13a2:	70 e0       	ldi	r23, 0x00	; 0
    13a4:	cb 01       	movw	r24, r22
    13a6:	13 c0       	rjmp	.+38     	; 0x13ce <hal_uart_send+0x9c>
	do 
	{	
		if(length == 0)
		{
			err = TX_ARRAY_LENGTH_ZERO_WARNING;
    13a8:	6b e0       	ldi	r22, 0x0B	; 11
    13aa:	70 e0       	ldi	r23, 0x00	; 0
    13ac:	80 e0       	ldi	r24, 0x00	; 0
    13ae:	90 e0       	ldi	r25, 0x00	; 0
    13b0:	0e c0       	rjmp	.+28     	; 0x13ce <hal_uart_send+0x9c>
			}
			break;
		}		
		if(g_tx_busy)
		{
			err = UART_ERROR_TX_BUSY;
    13b2:	69 e0       	ldi	r22, 0x09	; 9
    13b4:	70 e0       	ldi	r23, 0x00	; 0
    13b6:	80 e0       	ldi	r24, 0x00	; 0
    13b8:	90 e0       	ldi	r25, 0x00	; 0
    13ba:	09 c0       	rjmp	.+18     	; 0x13ce <hal_uart_send+0x9c>
			break;
		}
		if (map_uart_registers(uart_number))
		{
			err = UNSUPPORTED_UART;
    13bc:	65 e0       	ldi	r22, 0x05	; 5
    13be:	70 e0       	ldi	r23, 0x00	; 0
    13c0:	80 e0       	ldi	r24, 0x00	; 0
    13c2:	90 e0       	ldi	r25, 0x00	; 0
    13c4:	04 c0       	rjmp	.+8      	; 0x13ce <hal_uart_send+0x9c>
			break;
		}
		if (INT_TX_BUFF_LEN < length)
		{
			err = TX_ARRAY_ERROR;
    13c6:	6a e0       	ldi	r22, 0x0A	; 10
    13c8:	70 e0       	ldi	r23, 0x00	; 0
    13ca:	80 e0       	ldi	r24, 0x00	; 0
    13cc:	90 e0       	ldi	r25, 0x00	; 0
		on_trasmit_buffer_empty (uart_number);
		(*UCSRnB) |= (1<<UDRIEn) | (1<<TXCIEn); //enable Tx buffer empty interrupt
	} while (0);
	
	return err;
}
    13ce:	df 91       	pop	r29
    13d0:	cf 91       	pop	r28
    13d2:	1f 91       	pop	r17
    13d4:	0f 91       	pop	r16
    13d6:	08 95       	ret

000013d8 <set_baudrate_registers>:
	uint32_t err = NO_ERROR;
	uint16_t regValue = 0;
	
	do
	{	
		if (baudrate != 2400 && baudrate != 4800 && baudrate != 9600 && baudrate != 19200)
    13d8:	60 36       	cpi	r22, 0x60	; 96
    13da:	29 e0       	ldi	r18, 0x09	; 9
    13dc:	72 07       	cpc	r23, r18
    13de:	81 05       	cpc	r24, r1
    13e0:	91 05       	cpc	r25, r1
    13e2:	a1 f0       	breq	.+40     	; 0x140c <set_baudrate_registers+0x34>
    13e4:	60 3c       	cpi	r22, 0xC0	; 192
    13e6:	22 e1       	ldi	r18, 0x12	; 18
    13e8:	72 07       	cpc	r23, r18
    13ea:	81 05       	cpc	r24, r1
    13ec:	91 05       	cpc	r25, r1
    13ee:	89 f0       	breq	.+34     	; 0x1412 <set_baudrate_registers+0x3a>
    13f0:	60 38       	cpi	r22, 0x80	; 128
    13f2:	25 e2       	ldi	r18, 0x25	; 37
    13f4:	72 07       	cpc	r23, r18
    13f6:	81 05       	cpc	r24, r1
    13f8:	91 05       	cpc	r25, r1
    13fa:	71 f0       	breq	.+28     	; 0x1418 <set_baudrate_registers+0x40>
    13fc:	61 15       	cp	r22, r1
    13fe:	7b 44       	sbci	r23, 0x4B	; 75
    1400:	81 05       	cpc	r24, r1
    1402:	91 05       	cpc	r25, r1
    1404:	d9 f4       	brne	.+54     	; 0x143c <set_baudrate_registers+0x64>
				regValue = 103;
				break;
			}
			case 19200	:
			{
				regValue = 51;
    1406:	83 e3       	ldi	r24, 0x33	; 51
    1408:	90 e0       	ldi	r25, 0x00	; 0
    140a:	08 c0       	rjmp	.+16     	; 0x141c <set_baudrate_registers+0x44>
		
		//considering 16MHz clock rate
		switch (baudrate){
			case 2400   :
			{
				regValue = 416;
    140c:	80 ea       	ldi	r24, 0xA0	; 160
    140e:	91 e0       	ldi	r25, 0x01	; 1
    1410:	05 c0       	rjmp	.+10     	; 0x141c <set_baudrate_registers+0x44>
				break;
			}
			case 4800   :
			{
				regValue = 207;
    1412:	8f ec       	ldi	r24, 0xCF	; 207
    1414:	90 e0       	ldi	r25, 0x00	; 0
    1416:	02 c0       	rjmp	.+4      	; 0x141c <set_baudrate_registers+0x44>
				break;
			}
			case 9600   :
			{
				regValue = 103;
    1418:	87 e6       	ldi	r24, 0x67	; 103
    141a:	90 e0       	ldi	r25, 0x00	; 0
				regValue = 103;
				break;  // baudrate = 9600
			}
		}
		
		*UBRRnL = (regValue & 0x00FF);   // set the upper 8 bits
    141c:	e0 91 13 02 	lds	r30, 0x0213	; 0x800213 <UBRRnL>
    1420:	f0 91 14 02 	lds	r31, 0x0214	; 0x800214 <UBRRnL+0x1>
    1424:	80 83       	st	Z, r24
		*UBRRnH = ((regValue & 0x0F00)>>8); // set the lower 8 bits
    1426:	e0 91 11 02 	lds	r30, 0x0211	; 0x800211 <UBRRnH>
    142a:	f0 91 12 02 	lds	r31, 0x0212	; 0x800212 <UBRRnH+0x1>
    142e:	88 27       	eor	r24, r24
    1430:	9f 70       	andi	r25, 0x0F	; 15
    1432:	90 83       	st	Z, r25
	return err;
}

uint32_t set_baudrate_registers(uint32_t baudrate)
{	
	uint32_t err = NO_ERROR;
    1434:	60 e0       	ldi	r22, 0x00	; 0
    1436:	70 e0       	ldi	r23, 0x00	; 0
    1438:	cb 01       	movw	r24, r22
    143a:	08 95       	ret
	
	do
	{	
		if (baudrate != 2400 && baudrate != 4800 && baudrate != 9600 && baudrate != 19200)
		{
			err = UNSUPPORTED_BAUDRATE;
    143c:	66 e0       	ldi	r22, 0x06	; 6
    143e:	70 e0       	ldi	r23, 0x00	; 0
    1440:	80 e0       	ldi	r24, 0x00	; 0
    1442:	90 e0       	ldi	r25, 0x00	; 0
		*UBRRnL = (regValue & 0x00FF);   // set the upper 8 bits
		*UBRRnH = ((regValue & 0x0F00)>>8); // set the lower 8 bits
	}while(0);
	
	return err;
}
    1444:	08 95       	ret

00001446 <set_frame_size>:
uint32_t set_frame_size(uint8_t frame_size)  // can not configure for 9 bit version.
{	
	uint32_t err = NO_ERROR;
	do
	{	
		if (frame_size > 8 || frame_size < 5)
    1446:	9b ef       	ldi	r25, 0xFB	; 251
    1448:	98 0f       	add	r25, r24
    144a:	94 30       	cpi	r25, 0x04	; 4
    144c:	08 f0       	brcs	.+2      	; 0x1450 <set_frame_size+0xa>
    144e:	89 c0       	rjmp	.+274    	; 0x1562 <set_frame_size+0x11c>
		{
			err = UNSUPPORTED_FRAME_SIZE;
			break;
		}
		switch (frame_size){
    1450:	86 30       	cpi	r24, 0x06	; 6
    1452:	19 f1       	breq	.+70     	; 0x149a <set_frame_size+0x54>
    1454:	18 f4       	brcc	.+6      	; 0x145c <set_frame_size+0x16>
    1456:	85 30       	cpi	r24, 0x05	; 5
    1458:	39 f0       	breq	.+14     	; 0x1468 <set_frame_size+0x22>
    145a:	6a c0       	rjmp	.+212    	; 0x1530 <set_frame_size+0xea>
    145c:	87 30       	cpi	r24, 0x07	; 7
    145e:	b1 f1       	breq	.+108    	; 0x14cc <set_frame_size+0x86>
    1460:	88 30       	cpi	r24, 0x08	; 8
    1462:	09 f4       	brne	.+2      	; 0x1466 <set_frame_size+0x20>
    1464:	4c c0       	rjmp	.+152    	; 0x14fe <set_frame_size+0xb8>
    1466:	64 c0       	rjmp	.+200    	; 0x1530 <set_frame_size+0xea>
			case 5 :
			{
				(*UCSRnB) &= ~(1<<UCSZn2);
    1468:	e0 91 17 02 	lds	r30, 0x0217	; 0x800217 <UCSRnB>
    146c:	f0 91 18 02 	lds	r31, 0x0218	; 0x800218 <UCSRnB+0x1>
    1470:	80 81       	ld	r24, Z
    1472:	8b 7f       	andi	r24, 0xFB	; 251
    1474:	80 83       	st	Z, r24
				(*UCSRnC) &= ~(1<<UCSZn1);
    1476:	e0 91 15 02 	lds	r30, 0x0215	; 0x800215 <UCSRnC>
    147a:	f0 91 16 02 	lds	r31, 0x0216	; 0x800216 <UCSRnC+0x1>
    147e:	80 81       	ld	r24, Z
    1480:	8b 7f       	andi	r24, 0xFB	; 251
    1482:	80 83       	st	Z, r24
				(*UCSRnC) &= ~(1<<UCSZn0);
    1484:	e0 91 15 02 	lds	r30, 0x0215	; 0x800215 <UCSRnC>
    1488:	f0 91 16 02 	lds	r31, 0x0216	; 0x800216 <UCSRnC+0x1>
    148c:	80 81       	ld	r24, Z
    148e:	8d 7f       	andi	r24, 0xFD	; 253
    1490:	80 83       	st	Z, r24
	return err;
}

uint32_t set_frame_size(uint8_t frame_size)  // can not configure for 9 bit version.
{	
	uint32_t err = NO_ERROR;
    1492:	60 e0       	ldi	r22, 0x00	; 0
    1494:	70 e0       	ldi	r23, 0x00	; 0
    1496:	cb 01       	movw	r24, r22
			case 5 :
			{
				(*UCSRnB) &= ~(1<<UCSZn2);
				(*UCSRnC) &= ~(1<<UCSZn1);
				(*UCSRnC) &= ~(1<<UCSZn0);
				break;
    1498:	08 95       	ret
			}
			case 6 :
			{
				(*UCSRnB) &= ~(1<<UCSZn2);
    149a:	e0 91 17 02 	lds	r30, 0x0217	; 0x800217 <UCSRnB>
    149e:	f0 91 18 02 	lds	r31, 0x0218	; 0x800218 <UCSRnB+0x1>
    14a2:	80 81       	ld	r24, Z
    14a4:	8b 7f       	andi	r24, 0xFB	; 251
    14a6:	80 83       	st	Z, r24
				(*UCSRnC) &= ~(1<<UCSZn1);
    14a8:	e0 91 15 02 	lds	r30, 0x0215	; 0x800215 <UCSRnC>
    14ac:	f0 91 16 02 	lds	r31, 0x0216	; 0x800216 <UCSRnC+0x1>
    14b0:	80 81       	ld	r24, Z
    14b2:	8b 7f       	andi	r24, 0xFB	; 251
    14b4:	80 83       	st	Z, r24
				(*UCSRnC) |=  (1<<UCSZn0);
    14b6:	e0 91 15 02 	lds	r30, 0x0215	; 0x800215 <UCSRnC>
    14ba:	f0 91 16 02 	lds	r31, 0x0216	; 0x800216 <UCSRnC+0x1>
    14be:	80 81       	ld	r24, Z
    14c0:	82 60       	ori	r24, 0x02	; 2
    14c2:	80 83       	st	Z, r24
	return err;
}

uint32_t set_frame_size(uint8_t frame_size)  // can not configure for 9 bit version.
{	
	uint32_t err = NO_ERROR;
    14c4:	60 e0       	ldi	r22, 0x00	; 0
    14c6:	70 e0       	ldi	r23, 0x00	; 0
    14c8:	cb 01       	movw	r24, r22
			case 6 :
			{
				(*UCSRnB) &= ~(1<<UCSZn2);
				(*UCSRnC) &= ~(1<<UCSZn1);
				(*UCSRnC) |=  (1<<UCSZn0);
				break;
    14ca:	08 95       	ret
			}
			case 7 :
			{
				(*UCSRnB) &= ~(1<<UCSZn2);
    14cc:	e0 91 17 02 	lds	r30, 0x0217	; 0x800217 <UCSRnB>
    14d0:	f0 91 18 02 	lds	r31, 0x0218	; 0x800218 <UCSRnB+0x1>
    14d4:	80 81       	ld	r24, Z
    14d6:	8b 7f       	andi	r24, 0xFB	; 251
    14d8:	80 83       	st	Z, r24
				(*UCSRnC) |=  (1<<UCSZn1);
    14da:	e0 91 15 02 	lds	r30, 0x0215	; 0x800215 <UCSRnC>
    14de:	f0 91 16 02 	lds	r31, 0x0216	; 0x800216 <UCSRnC+0x1>
    14e2:	80 81       	ld	r24, Z
    14e4:	84 60       	ori	r24, 0x04	; 4
    14e6:	80 83       	st	Z, r24
				(*UCSRnC) &= ~(1<<UCSZn0);
    14e8:	e0 91 15 02 	lds	r30, 0x0215	; 0x800215 <UCSRnC>
    14ec:	f0 91 16 02 	lds	r31, 0x0216	; 0x800216 <UCSRnC+0x1>
    14f0:	80 81       	ld	r24, Z
    14f2:	8d 7f       	andi	r24, 0xFD	; 253
    14f4:	80 83       	st	Z, r24
	return err;
}

uint32_t set_frame_size(uint8_t frame_size)  // can not configure for 9 bit version.
{	
	uint32_t err = NO_ERROR;
    14f6:	60 e0       	ldi	r22, 0x00	; 0
    14f8:	70 e0       	ldi	r23, 0x00	; 0
    14fa:	cb 01       	movw	r24, r22
			case 7 :
			{
				(*UCSRnB) &= ~(1<<UCSZn2);
				(*UCSRnC) |=  (1<<UCSZn1);
				(*UCSRnC) &= ~(1<<UCSZn0);
				break;
    14fc:	08 95       	ret
			}
			case 8 :
			{
				(*UCSRnB) &= ~(1<<UCSZn2);
    14fe:	e0 91 17 02 	lds	r30, 0x0217	; 0x800217 <UCSRnB>
    1502:	f0 91 18 02 	lds	r31, 0x0218	; 0x800218 <UCSRnB+0x1>
    1506:	80 81       	ld	r24, Z
    1508:	8b 7f       	andi	r24, 0xFB	; 251
    150a:	80 83       	st	Z, r24
				(*UCSRnC) |=  (1<<UCSZn1);
    150c:	e0 91 15 02 	lds	r30, 0x0215	; 0x800215 <UCSRnC>
    1510:	f0 91 16 02 	lds	r31, 0x0216	; 0x800216 <UCSRnC+0x1>
    1514:	80 81       	ld	r24, Z
    1516:	84 60       	ori	r24, 0x04	; 4
    1518:	80 83       	st	Z, r24
				(*UCSRnC) |=  (1<<UCSZn0);
    151a:	e0 91 15 02 	lds	r30, 0x0215	; 0x800215 <UCSRnC>
    151e:	f0 91 16 02 	lds	r31, 0x0216	; 0x800216 <UCSRnC+0x1>
    1522:	80 81       	ld	r24, Z
    1524:	82 60       	ori	r24, 0x02	; 2
    1526:	80 83       	st	Z, r24
	return err;
}

uint32_t set_frame_size(uint8_t frame_size)  // can not configure for 9 bit version.
{	
	uint32_t err = NO_ERROR;
    1528:	60 e0       	ldi	r22, 0x00	; 0
    152a:	70 e0       	ldi	r23, 0x00	; 0
    152c:	cb 01       	movw	r24, r22
			case 8 :
			{
				(*UCSRnB) &= ~(1<<UCSZn2);
				(*UCSRnC) |=  (1<<UCSZn1);
				(*UCSRnC) |=  (1<<UCSZn0);
				break;
    152e:	08 95       	ret
			}
			default:
			{
				(*UCSRnB) &= ~(1<<UCSZn2);
    1530:	e0 91 17 02 	lds	r30, 0x0217	; 0x800217 <UCSRnB>
    1534:	f0 91 18 02 	lds	r31, 0x0218	; 0x800218 <UCSRnB+0x1>
    1538:	80 81       	ld	r24, Z
    153a:	8b 7f       	andi	r24, 0xFB	; 251
    153c:	80 83       	st	Z, r24
				(*UCSRnC) |=  (1<<UCSZn1);
    153e:	e0 91 15 02 	lds	r30, 0x0215	; 0x800215 <UCSRnC>
    1542:	f0 91 16 02 	lds	r31, 0x0216	; 0x800216 <UCSRnC+0x1>
    1546:	80 81       	ld	r24, Z
    1548:	84 60       	ori	r24, 0x04	; 4
    154a:	80 83       	st	Z, r24
				(*UCSRnC) |=  (1<<UCSZn0);
    154c:	e0 91 15 02 	lds	r30, 0x0215	; 0x800215 <UCSRnC>
    1550:	f0 91 16 02 	lds	r31, 0x0216	; 0x800216 <UCSRnC+0x1>
    1554:	80 81       	ld	r24, Z
    1556:	82 60       	ori	r24, 0x02	; 2
    1558:	80 83       	st	Z, r24
	return err;
}

uint32_t set_frame_size(uint8_t frame_size)  // can not configure for 9 bit version.
{	
	uint32_t err = NO_ERROR;
    155a:	60 e0       	ldi	r22, 0x00	; 0
    155c:	70 e0       	ldi	r23, 0x00	; 0
    155e:	cb 01       	movw	r24, r22
			default:
			{
				(*UCSRnB) &= ~(1<<UCSZn2);
				(*UCSRnC) |=  (1<<UCSZn1);
				(*UCSRnC) |=  (1<<UCSZn0);
				break; // default is 8 bit version
    1560:	08 95       	ret
	uint32_t err = NO_ERROR;
	do
	{	
		if (frame_size > 8 || frame_size < 5)
		{
			err = UNSUPPORTED_FRAME_SIZE;
    1562:	67 e0       	ldi	r22, 0x07	; 7
    1564:	70 e0       	ldi	r23, 0x00	; 0
    1566:	80 e0       	ldi	r24, 0x00	; 0
    1568:	90 e0       	ldi	r25, 0x00	; 0
			}
		}
	} while (0);
	
	return err;
}
    156a:	08 95       	ret

0000156c <set_parity_register_values>:

void set_parity_register_values(parity_types parity_type)
{
	switch (parity_type){
    156c:	81 30       	cpi	r24, 0x01	; 1
    156e:	09 f1       	breq	.+66     	; 0x15b2 <set_parity_register_values+0x46>
    1570:	88 f0       	brcs	.+34     	; 0x1594 <set_parity_register_values+0x28>
    1572:	82 30       	cpi	r24, 0x02	; 2
    1574:	69 f5       	brne	.+90     	; 0x15d0 <set_parity_register_values+0x64>
		case (NO_PARITY): 
		{
			(*UCSRnC) &= ~(1<<UPMn1);	 
    1576:	e0 91 15 02 	lds	r30, 0x0215	; 0x800215 <UCSRnC>
    157a:	f0 91 16 02 	lds	r31, 0x0216	; 0x800216 <UCSRnC+0x1>
    157e:	80 81       	ld	r24, Z
    1580:	8f 7d       	andi	r24, 0xDF	; 223
    1582:	80 83       	st	Z, r24
			(*UCSRnC) &= ~(1<<UPMn0);	
    1584:	e0 91 15 02 	lds	r30, 0x0215	; 0x800215 <UCSRnC>
    1588:	f0 91 16 02 	lds	r31, 0x0216	; 0x800216 <UCSRnC+0x1>
    158c:	80 81       	ld	r24, Z
    158e:	8f 7e       	andi	r24, 0xEF	; 239
    1590:	80 83       	st	Z, r24
			break;
    1592:	08 95       	ret
		}
		case (EVEN)		: 
		{
			(*UCSRnC) |=  (1<<UPMn1);	 
    1594:	e0 91 15 02 	lds	r30, 0x0215	; 0x800215 <UCSRnC>
    1598:	f0 91 16 02 	lds	r31, 0x0216	; 0x800216 <UCSRnC+0x1>
    159c:	80 81       	ld	r24, Z
    159e:	80 62       	ori	r24, 0x20	; 32
    15a0:	80 83       	st	Z, r24
			(*UCSRnC) &= ~(1<<UPMn0);	
    15a2:	e0 91 15 02 	lds	r30, 0x0215	; 0x800215 <UCSRnC>
    15a6:	f0 91 16 02 	lds	r31, 0x0216	; 0x800216 <UCSRnC+0x1>
    15aa:	80 81       	ld	r24, Z
    15ac:	8f 7e       	andi	r24, 0xEF	; 239
    15ae:	80 83       	st	Z, r24
			break;
    15b0:	08 95       	ret
		}
		case (ODD)		: 
		{
			(*UCSRnC) |=  (1<<UPMn1);  
    15b2:	e0 91 15 02 	lds	r30, 0x0215	; 0x800215 <UCSRnC>
    15b6:	f0 91 16 02 	lds	r31, 0x0216	; 0x800216 <UCSRnC+0x1>
    15ba:	80 81       	ld	r24, Z
    15bc:	80 62       	ori	r24, 0x20	; 32
    15be:	80 83       	st	Z, r24
			(*UCSRnC) |=  (1<<UPMn0);	
    15c0:	e0 91 15 02 	lds	r30, 0x0215	; 0x800215 <UCSRnC>
    15c4:	f0 91 16 02 	lds	r31, 0x0216	; 0x800216 <UCSRnC+0x1>
    15c8:	80 81       	ld	r24, Z
    15ca:	80 61       	ori	r24, 0x10	; 16
    15cc:	80 83       	st	Z, r24
			break;
    15ce:	08 95       	ret
		}
		default			: 
		{
			(*UCSRnC) &= ~(1<<UPMn1);	 
    15d0:	e0 91 15 02 	lds	r30, 0x0215	; 0x800215 <UCSRnC>
    15d4:	f0 91 16 02 	lds	r31, 0x0216	; 0x800216 <UCSRnC+0x1>
    15d8:	80 81       	ld	r24, Z
    15da:	8f 7d       	andi	r24, 0xDF	; 223
    15dc:	80 83       	st	Z, r24
			(*UCSRnC) &= ~(1<<UPMn0);	
    15de:	e0 91 15 02 	lds	r30, 0x0215	; 0x800215 <UCSRnC>
    15e2:	f0 91 16 02 	lds	r31, 0x0216	; 0x800216 <UCSRnC+0x1>
    15e6:	80 81       	ld	r24, Z
    15e8:	8f 7e       	andi	r24, 0xEF	; 239
    15ea:	80 83       	st	Z, r24
    15ec:	08 95       	ret

000015ee <hal_uart_init>:


/////////////////////////Public Functions////////////////////

uint32_t hal_uart_init(uint8_t uart_number, uint32_t baudrate, uint8_t frame_size, parity_types parity_type)
{	
    15ee:	cf 92       	push	r12
    15f0:	df 92       	push	r13
    15f2:	ef 92       	push	r14
    15f4:	ff 92       	push	r15
    15f6:	0f 93       	push	r16
    15f8:	cf 93       	push	r28
    15fa:	6a 01       	movw	r12, r20
    15fc:	7b 01       	movw	r14, r22
    15fe:	c2 2f       	mov	r28, r18
	uint32_t err = NO_ERROR;
	do 
	{
		sei();  // to enable global interrupts
    1600:	78 94       	sei
		
		if (map_uart_registers(uart_number))  //choose correct register set for the given UART number
    1602:	aa dd       	rcall	.-1196   	; 0x1158 <map_uart_registers>
    1604:	67 2b       	or	r22, r23
    1606:	68 2b       	or	r22, r24
    1608:	69 2b       	or	r22, r25
    160a:	09 f0       	breq	.+2      	; 0x160e <hal_uart_init+0x20>
    160c:	4d c0       	rjmp	.+154    	; 0x16a8 <hal_uart_init+0xba>
		{
			err=UNSUPPORTED_UART;
			break;
		}
		
		if (set_baudrate_registers(baudrate))  // to fill the UBRRn register according to the given baudrate
    160e:	c7 01       	movw	r24, r14
    1610:	b6 01       	movw	r22, r12
    1612:	e2 de       	rcall	.-572    	; 0x13d8 <set_baudrate_registers>
    1614:	67 2b       	or	r22, r23
    1616:	68 2b       	or	r22, r24
    1618:	69 2b       	or	r22, r25
    161a:	09 f0       	breq	.+2      	; 0x161e <hal_uart_init+0x30>
    161c:	4a c0       	rjmp	.+148    	; 0x16b2 <hal_uart_init+0xc4>
		{
			err=UNSUPPORTED_BAUDRATE;
			break;
		}
		
		if (set_frame_size(frame_size)) // set register values belongs to frame size configuration
    161e:	8c 2f       	mov	r24, r28
    1620:	12 df       	rcall	.-476    	; 0x1446 <set_frame_size>
    1622:	67 2b       	or	r22, r23
    1624:	68 2b       	or	r22, r24
    1626:	69 2b       	or	r22, r25
    1628:	09 f0       	breq	.+2      	; 0x162c <hal_uart_init+0x3e>
    162a:	48 c0       	rjmp	.+144    	; 0x16bc <hal_uart_init+0xce>
		{
			err=UNSUPPORTED_FRAME_SIZE;
			break;
		}
		
		set_parity_register_values(parity_type);
    162c:	80 2f       	mov	r24, r16
    162e:	9e df       	rcall	.-196    	; 0x156c <set_parity_register_values>
    1630:	e0 91 15 02 	lds	r30, 0x0215	; 0x800215 <UCSRnC>
		
		(*UCSRnC) &= ~(1<<UMSELn1) & ~(1<<UMSELn0); // set mode to asynchronous UART
    1634:	f0 91 16 02 	lds	r31, 0x0216	; 0x800216 <UCSRnC+0x1>
    1638:	80 81       	ld	r24, Z
    163a:	8f 73       	andi	r24, 0x3F	; 63
    163c:	80 83       	st	Z, r24
    163e:	e0 91 15 02 	lds	r30, 0x0215	; 0x800215 <UCSRnC>
		(*UCSRnC) &= ~(1<<USBSn); // to use only 1 stop bit
    1642:	f0 91 16 02 	lds	r31, 0x0216	; 0x800216 <UCSRnC+0x1>
    1646:	80 81       	ld	r24, Z
    1648:	87 7f       	andi	r24, 0xF7	; 247
    164a:	80 83       	st	Z, r24
    164c:	e0 91 15 02 	lds	r30, 0x0215	; 0x800215 <UCSRnC>
		(*UCSRnC) &= ~(1<<UCPOLn); //don't use clock parity as asynchronous mode is used
    1650:	f0 91 16 02 	lds	r31, 0x0216	; 0x800216 <UCSRnC+0x1>
    1654:	80 81       	ld	r24, Z
    1656:	8e 7f       	andi	r24, 0xFE	; 254
    1658:	80 83       	st	Z, r24
    165a:	e0 91 19 02 	lds	r30, 0x0219	; 0x800219 <UCSRnA>
		
		(*UCSRnA) |= (1<<TXCn);  // to clear the flag should give 1
    165e:	f0 91 1a 02 	lds	r31, 0x021A	; 0x80021a <UCSRnA+0x1>
    1662:	80 81       	ld	r24, Z
    1664:	80 64       	ori	r24, 0x40	; 64
    1666:	80 83       	st	Z, r24
    1668:	e0 91 19 02 	lds	r30, 0x0219	; 0x800219 <UCSRnA>
		(*UCSRnA) &= ~(1<<FEn) & ~(1<<DORn) & ~(1<<UPEn) & ~(1<<U2Xn) & ~(1<<MPCMn);
    166c:	f0 91 1a 02 	lds	r31, 0x021A	; 0x80021a <UCSRnA+0x1>
    1670:	80 81       	ld	r24, Z
    1672:	80 7e       	andi	r24, 0xE0	; 224
    1674:	80 83       	st	Z, r24
    1676:	e0 91 17 02 	lds	r30, 0x0217	; 0x800217 <UCSRnB>
		
		(*UCSRnB) |= (1<<RXCIEn); //enable Rx complete and Tx complete interrupts
    167a:	f0 91 18 02 	lds	r31, 0x0218	; 0x800218 <UCSRnB+0x1>
    167e:	80 81       	ld	r24, Z
    1680:	80 68       	ori	r24, 0x80	; 128
    1682:	80 83       	st	Z, r24
    1684:	e0 91 17 02 	lds	r30, 0x0217	; 0x800217 <UCSRnB>
		(*UCSRnB) &= ~(1<<UDRIEn) & ~(1<<TXCIEn); //disable Tx buffer empty interrupt
    1688:	f0 91 18 02 	lds	r31, 0x0218	; 0x800218 <UCSRnB+0x1>
    168c:	80 81       	ld	r24, Z
    168e:	8f 79       	andi	r24, 0x9F	; 159
    1690:	80 83       	st	Z, r24
    1692:	e0 91 17 02 	lds	r30, 0x0217	; 0x800217 <UCSRnB>
		(*UCSRnB) |= (1<<RXENn) | (1<<TXENn); // enable UART transmitter and receiver
    1696:	f0 91 18 02 	lds	r31, 0x0218	; 0x800218 <UCSRnB+0x1>
    169a:	80 81       	ld	r24, Z
    169c:	88 61       	ori	r24, 0x18	; 24
    169e:	80 83       	st	Z, r24
    16a0:	60 e0       	ldi	r22, 0x00	; 0

/////////////////////////Public Functions////////////////////

uint32_t hal_uart_init(uint8_t uart_number, uint32_t baudrate, uint8_t frame_size, parity_types parity_type)
{	
	uint32_t err = NO_ERROR;
    16a2:	70 e0       	ldi	r23, 0x00	; 0
    16a4:	cb 01       	movw	r24, r22
    16a6:	0e c0       	rjmp	.+28     	; 0x16c4 <hal_uart_init+0xd6>
    16a8:	65 e0       	ldi	r22, 0x05	; 5
	{
		sei();  // to enable global interrupts
		
		if (map_uart_registers(uart_number))  //choose correct register set for the given UART number
		{
			err=UNSUPPORTED_UART;
    16aa:	70 e0       	ldi	r23, 0x00	; 0
    16ac:	80 e0       	ldi	r24, 0x00	; 0
    16ae:	90 e0       	ldi	r25, 0x00	; 0
    16b0:	09 c0       	rjmp	.+18     	; 0x16c4 <hal_uart_init+0xd6>
    16b2:	66 e0       	ldi	r22, 0x06	; 6
			break;
		}
		
		if (set_baudrate_registers(baudrate))  // to fill the UBRRn register according to the given baudrate
		{
			err=UNSUPPORTED_BAUDRATE;
    16b4:	70 e0       	ldi	r23, 0x00	; 0
    16b6:	80 e0       	ldi	r24, 0x00	; 0
    16b8:	90 e0       	ldi	r25, 0x00	; 0
    16ba:	04 c0       	rjmp	.+8      	; 0x16c4 <hal_uart_init+0xd6>
    16bc:	67 e0       	ldi	r22, 0x07	; 7
			break;
		}
		
		if (set_frame_size(frame_size)) // set register values belongs to frame size configuration
		{
			err=UNSUPPORTED_FRAME_SIZE;
    16be:	70 e0       	ldi	r23, 0x00	; 0
    16c0:	80 e0       	ldi	r24, 0x00	; 0
    16c2:	90 e0       	ldi	r25, 0x00	; 0
    16c4:	cf 91       	pop	r28
		(*UCSRnB) |= (1<<RXENn) | (1<<TXENn); // enable UART transmitter and receiver
		
	} while (0);
		
	return err;
}
    16c6:	0f 91       	pop	r16
    16c8:	ff 90       	pop	r15
    16ca:	ef 90       	pop	r14
    16cc:	df 90       	pop	r13
    16ce:	cf 90       	pop	r12
    16d0:	08 95       	ret

000016d2 <__vector_25>:
    16d2:	1f 92       	push	r1
	}
}

////////////////////////////received complete interrupt callings/////////////
ISR(USART0_RX_vect)
{
    16d4:	0f 92       	push	r0
    16d6:	0f b6       	in	r0, 0x3f	; 63
    16d8:	0f 92       	push	r0
    16da:	11 24       	eor	r1, r1
    16dc:	0b b6       	in	r0, 0x3b	; 59
    16de:	0f 92       	push	r0
    16e0:	2f 93       	push	r18
    16e2:	3f 93       	push	r19
    16e4:	4f 93       	push	r20
    16e6:	5f 93       	push	r21
    16e8:	6f 93       	push	r22
    16ea:	7f 93       	push	r23
    16ec:	8f 93       	push	r24
    16ee:	9f 93       	push	r25
    16f0:	af 93       	push	r26
    16f2:	bf 93       	push	r27
    16f4:	ef 93       	push	r30
    16f6:	ff 93       	push	r31
	bool parity_error = (UCSR0A & (1<<UPE0))>>UPE0;
    16f8:	80 91 c0 00 	lds	r24, 0x00C0	; 0x8000c0 <__TEXT_REGION_LENGTH__+0x7000c0>
    16fc:	41 e0       	ldi	r20, 0x01	; 1
    16fe:	82 ff       	sbrs	r24, 2
    1700:	40 e0       	ldi	r20, 0x00	; 0
	if (g_on_byte_received != NULL)
    1702:	e0 91 1d 02 	lds	r30, 0x021D	; 0x80021d <g_on_byte_received>
    1706:	f0 91 1e 02 	lds	r31, 0x021E	; 0x80021e <g_on_byte_received+0x1>
    170a:	30 97       	sbiw	r30, 0x00	; 0
    170c:	21 f0       	breq	.+8      	; 0x1716 <__vector_25+0x44>
	{
		g_on_byte_received(0, UDR0, parity_error);
    170e:	60 91 c6 00 	lds	r22, 0x00C6	; 0x8000c6 <__TEXT_REGION_LENGTH__+0x7000c6>
    1712:	80 e0       	ldi	r24, 0x00	; 0
    1714:	19 95       	eicall
	}
}
    1716:	ff 91       	pop	r31
    1718:	ef 91       	pop	r30
    171a:	bf 91       	pop	r27
    171c:	af 91       	pop	r26
    171e:	9f 91       	pop	r25
    1720:	8f 91       	pop	r24
    1722:	7f 91       	pop	r23
    1724:	6f 91       	pop	r22
    1726:	5f 91       	pop	r21
    1728:	4f 91       	pop	r20
    172a:	3f 91       	pop	r19
    172c:	2f 91       	pop	r18
    172e:	0f 90       	pop	r0
    1730:	0b be       	out	0x3b, r0	; 59
    1732:	0f 90       	pop	r0
    1734:	0f be       	out	0x3f, r0	; 63
    1736:	0f 90       	pop	r0
    1738:	1f 90       	pop	r1
    173a:	18 95       	reti

0000173c <__vector_36>:

ISR(USART1_RX_vect)
{
    173c:	1f 92       	push	r1
    173e:	0f 92       	push	r0
    1740:	0f b6       	in	r0, 0x3f	; 63
    1742:	0f 92       	push	r0
    1744:	11 24       	eor	r1, r1
    1746:	0b b6       	in	r0, 0x3b	; 59
    1748:	0f 92       	push	r0
    174a:	2f 93       	push	r18
    174c:	3f 93       	push	r19
    174e:	4f 93       	push	r20
    1750:	5f 93       	push	r21
    1752:	6f 93       	push	r22
    1754:	7f 93       	push	r23
    1756:	8f 93       	push	r24
    1758:	9f 93       	push	r25
    175a:	af 93       	push	r26
    175c:	bf 93       	push	r27
    175e:	ef 93       	push	r30
    1760:	ff 93       	push	r31
	bool parity_error = (UCSR1A & (1<<UPE1))>>UPE1;
    1762:	80 91 c8 00 	lds	r24, 0x00C8	; 0x8000c8 <__TEXT_REGION_LENGTH__+0x7000c8>
    1766:	41 e0       	ldi	r20, 0x01	; 1
    1768:	82 ff       	sbrs	r24, 2
    176a:	40 e0       	ldi	r20, 0x00	; 0
	if (g_on_byte_received != NULL)
    176c:	e0 91 1d 02 	lds	r30, 0x021D	; 0x80021d <g_on_byte_received>
    1770:	f0 91 1e 02 	lds	r31, 0x021E	; 0x80021e <g_on_byte_received+0x1>
    1774:	30 97       	sbiw	r30, 0x00	; 0
    1776:	21 f0       	breq	.+8      	; 0x1780 <__vector_36+0x44>
	{
		g_on_byte_received(1, UDR1, parity_error);
    1778:	60 91 ce 00 	lds	r22, 0x00CE	; 0x8000ce <__TEXT_REGION_LENGTH__+0x7000ce>
    177c:	81 e0       	ldi	r24, 0x01	; 1
    177e:	19 95       	eicall
	}
}
    1780:	ff 91       	pop	r31
    1782:	ef 91       	pop	r30
    1784:	bf 91       	pop	r27
    1786:	af 91       	pop	r26
    1788:	9f 91       	pop	r25
    178a:	8f 91       	pop	r24
    178c:	7f 91       	pop	r23
    178e:	6f 91       	pop	r22
    1790:	5f 91       	pop	r21
    1792:	4f 91       	pop	r20
    1794:	3f 91       	pop	r19
    1796:	2f 91       	pop	r18
    1798:	0f 90       	pop	r0
    179a:	0b be       	out	0x3b, r0	; 59
    179c:	0f 90       	pop	r0
    179e:	0f be       	out	0x3f, r0	; 63
    17a0:	0f 90       	pop	r0
    17a2:	1f 90       	pop	r1
    17a4:	18 95       	reti

000017a6 <__vector_51>:

ISR(USART2_RX_vect)
{
    17a6:	1f 92       	push	r1
    17a8:	0f 92       	push	r0
    17aa:	0f b6       	in	r0, 0x3f	; 63
    17ac:	0f 92       	push	r0
    17ae:	11 24       	eor	r1, r1
    17b0:	0b b6       	in	r0, 0x3b	; 59
    17b2:	0f 92       	push	r0
    17b4:	2f 93       	push	r18
    17b6:	3f 93       	push	r19
    17b8:	4f 93       	push	r20
    17ba:	5f 93       	push	r21
    17bc:	6f 93       	push	r22
    17be:	7f 93       	push	r23
    17c0:	8f 93       	push	r24
    17c2:	9f 93       	push	r25
    17c4:	af 93       	push	r26
    17c6:	bf 93       	push	r27
    17c8:	ef 93       	push	r30
    17ca:	ff 93       	push	r31
	bool parity_error = (UCSR2A & (1<<UPE2))>>UPE2;
    17cc:	80 91 d0 00 	lds	r24, 0x00D0	; 0x8000d0 <__TEXT_REGION_LENGTH__+0x7000d0>
    17d0:	41 e0       	ldi	r20, 0x01	; 1
    17d2:	82 ff       	sbrs	r24, 2
    17d4:	40 e0       	ldi	r20, 0x00	; 0
	if (g_on_byte_received != NULL)
    17d6:	e0 91 1d 02 	lds	r30, 0x021D	; 0x80021d <g_on_byte_received>
    17da:	f0 91 1e 02 	lds	r31, 0x021E	; 0x80021e <g_on_byte_received+0x1>
    17de:	30 97       	sbiw	r30, 0x00	; 0
    17e0:	21 f0       	breq	.+8      	; 0x17ea <__vector_51+0x44>
	{
		g_on_byte_received(2, UDR2, parity_error);
    17e2:	60 91 d6 00 	lds	r22, 0x00D6	; 0x8000d6 <__TEXT_REGION_LENGTH__+0x7000d6>
    17e6:	82 e0       	ldi	r24, 0x02	; 2
    17e8:	19 95       	eicall
	}
}
    17ea:	ff 91       	pop	r31
    17ec:	ef 91       	pop	r30
    17ee:	bf 91       	pop	r27
    17f0:	af 91       	pop	r26
    17f2:	9f 91       	pop	r25
    17f4:	8f 91       	pop	r24
    17f6:	7f 91       	pop	r23
    17f8:	6f 91       	pop	r22
    17fa:	5f 91       	pop	r21
    17fc:	4f 91       	pop	r20
    17fe:	3f 91       	pop	r19
    1800:	2f 91       	pop	r18
    1802:	0f 90       	pop	r0
    1804:	0b be       	out	0x3b, r0	; 59
    1806:	0f 90       	pop	r0
    1808:	0f be       	out	0x3f, r0	; 63
    180a:	0f 90       	pop	r0
    180c:	1f 90       	pop	r1
    180e:	18 95       	reti

00001810 <__vector_54>:

ISR(USART3_RX_vect)
{
    1810:	1f 92       	push	r1
    1812:	0f 92       	push	r0
    1814:	0f b6       	in	r0, 0x3f	; 63
    1816:	0f 92       	push	r0
    1818:	11 24       	eor	r1, r1
    181a:	0b b6       	in	r0, 0x3b	; 59
    181c:	0f 92       	push	r0
    181e:	2f 93       	push	r18
    1820:	3f 93       	push	r19
    1822:	4f 93       	push	r20
    1824:	5f 93       	push	r21
    1826:	6f 93       	push	r22
    1828:	7f 93       	push	r23
    182a:	8f 93       	push	r24
    182c:	9f 93       	push	r25
    182e:	af 93       	push	r26
    1830:	bf 93       	push	r27
    1832:	ef 93       	push	r30
    1834:	ff 93       	push	r31
	bool parity_error = (UCSR3A & (1<<UPE3))>>UPE3;
    1836:	80 91 30 01 	lds	r24, 0x0130	; 0x800130 <__TEXT_REGION_LENGTH__+0x700130>
    183a:	41 e0       	ldi	r20, 0x01	; 1
    183c:	82 ff       	sbrs	r24, 2
    183e:	40 e0       	ldi	r20, 0x00	; 0
	if (g_on_byte_received != NULL) 
    1840:	e0 91 1d 02 	lds	r30, 0x021D	; 0x80021d <g_on_byte_received>
    1844:	f0 91 1e 02 	lds	r31, 0x021E	; 0x80021e <g_on_byte_received+0x1>
    1848:	30 97       	sbiw	r30, 0x00	; 0
    184a:	21 f0       	breq	.+8      	; 0x1854 <__vector_54+0x44>
	{
		g_on_byte_received(3, UDR3, parity_error);
    184c:	60 91 36 01 	lds	r22, 0x0136	; 0x800136 <__TEXT_REGION_LENGTH__+0x700136>
    1850:	83 e0       	ldi	r24, 0x03	; 3
    1852:	19 95       	eicall
	}
}
    1854:	ff 91       	pop	r31
    1856:	ef 91       	pop	r30
    1858:	bf 91       	pop	r27
    185a:	af 91       	pop	r26
    185c:	9f 91       	pop	r25
    185e:	8f 91       	pop	r24
    1860:	7f 91       	pop	r23
    1862:	6f 91       	pop	r22
    1864:	5f 91       	pop	r21
    1866:	4f 91       	pop	r20
    1868:	3f 91       	pop	r19
    186a:	2f 91       	pop	r18
    186c:	0f 90       	pop	r0
    186e:	0b be       	out	0x3b, r0	; 59
    1870:	0f 90       	pop	r0
    1872:	0f be       	out	0x3f, r0	; 63
    1874:	0f 90       	pop	r0
    1876:	1f 90       	pop	r1
    1878:	18 95       	reti

0000187a <__vector_27>:

/////////////////////////transmission complete interrupt callings //////////////
ISR(USART0_TX_vect)
{
    187a:	1f 92       	push	r1
    187c:	0f 92       	push	r0
    187e:	0f b6       	in	r0, 0x3f	; 63
    1880:	0f 92       	push	r0
    1882:	11 24       	eor	r1, r1
    1884:	0b b6       	in	r0, 0x3b	; 59
    1886:	0f 92       	push	r0
    1888:	2f 93       	push	r18
    188a:	3f 93       	push	r19
    188c:	4f 93       	push	r20
    188e:	5f 93       	push	r21
    1890:	6f 93       	push	r22
    1892:	7f 93       	push	r23
    1894:	8f 93       	push	r24
    1896:	9f 93       	push	r25
    1898:	af 93       	push	r26
    189a:	bf 93       	push	r27
    189c:	ef 93       	push	r30
    189e:	ff 93       	push	r31
	g_tx_buff_idx=0;
    18a0:	10 92 4f 02 	sts	0x024F, r1	; 0x80024f <g_tx_buff_idx>
	g_tx_busy=false;
    18a4:	10 92 0e 02 	sts	0x020E, r1	; 0x80020e <g_tx_busy>
	map_uart_registers(0);
    18a8:	80 e0       	ldi	r24, 0x00	; 0
    18aa:	56 dc       	rcall	.-1876   	; 0x1158 <map_uart_registers>
	(*UCSRnB) &= ~(1<<TXCIEn);
    18ac:	e0 91 17 02 	lds	r30, 0x0217	; 0x800217 <UCSRnB>
    18b0:	f0 91 18 02 	lds	r31, 0x0218	; 0x800218 <UCSRnB+0x1>
    18b4:	80 81       	ld	r24, Z
    18b6:	8f 7b       	andi	r24, 0xBF	; 191
    18b8:	80 83       	st	Z, r24
	if (g_on_transmission_complete != NULL)
    18ba:	e0 91 1b 02 	lds	r30, 0x021B	; 0x80021b <g_on_transmission_complete>
    18be:	f0 91 1c 02 	lds	r31, 0x021C	; 0x80021c <g_on_transmission_complete+0x1>
    18c2:	30 97       	sbiw	r30, 0x00	; 0
    18c4:	11 f0       	breq	.+4      	; 0x18ca <__vector_27+0x50>
	{
		g_on_transmission_complete(0);
    18c6:	80 e0       	ldi	r24, 0x00	; 0
    18c8:	19 95       	eicall
	}
}
    18ca:	ff 91       	pop	r31
    18cc:	ef 91       	pop	r30
    18ce:	bf 91       	pop	r27
    18d0:	af 91       	pop	r26
    18d2:	9f 91       	pop	r25
    18d4:	8f 91       	pop	r24
    18d6:	7f 91       	pop	r23
    18d8:	6f 91       	pop	r22
    18da:	5f 91       	pop	r21
    18dc:	4f 91       	pop	r20
    18de:	3f 91       	pop	r19
    18e0:	2f 91       	pop	r18
    18e2:	0f 90       	pop	r0
    18e4:	0b be       	out	0x3b, r0	; 59
    18e6:	0f 90       	pop	r0
    18e8:	0f be       	out	0x3f, r0	; 63
    18ea:	0f 90       	pop	r0
    18ec:	1f 90       	pop	r1
    18ee:	18 95       	reti

000018f0 <__vector_38>:

ISR(USART1_TX_vect)
{
    18f0:	1f 92       	push	r1
    18f2:	0f 92       	push	r0
    18f4:	0f b6       	in	r0, 0x3f	; 63
    18f6:	0f 92       	push	r0
    18f8:	11 24       	eor	r1, r1
    18fa:	0b b6       	in	r0, 0x3b	; 59
    18fc:	0f 92       	push	r0
    18fe:	2f 93       	push	r18
    1900:	3f 93       	push	r19
    1902:	4f 93       	push	r20
    1904:	5f 93       	push	r21
    1906:	6f 93       	push	r22
    1908:	7f 93       	push	r23
    190a:	8f 93       	push	r24
    190c:	9f 93       	push	r25
    190e:	af 93       	push	r26
    1910:	bf 93       	push	r27
    1912:	ef 93       	push	r30
    1914:	ff 93       	push	r31
	g_tx_buff_idx=0;
    1916:	10 92 4f 02 	sts	0x024F, r1	; 0x80024f <g_tx_buff_idx>
	g_tx_busy=false;
    191a:	10 92 0e 02 	sts	0x020E, r1	; 0x80020e <g_tx_busy>
	map_uart_registers(1);
    191e:	81 e0       	ldi	r24, 0x01	; 1
    1920:	1b dc       	rcall	.-1994   	; 0x1158 <map_uart_registers>
	(*UCSRnB) &= ~(1<<TXCIEn);
    1922:	e0 91 17 02 	lds	r30, 0x0217	; 0x800217 <UCSRnB>
    1926:	f0 91 18 02 	lds	r31, 0x0218	; 0x800218 <UCSRnB+0x1>
    192a:	80 81       	ld	r24, Z
    192c:	8f 7b       	andi	r24, 0xBF	; 191
    192e:	80 83       	st	Z, r24
	if (g_on_transmission_complete != NULL)
    1930:	e0 91 1b 02 	lds	r30, 0x021B	; 0x80021b <g_on_transmission_complete>
    1934:	f0 91 1c 02 	lds	r31, 0x021C	; 0x80021c <g_on_transmission_complete+0x1>
    1938:	30 97       	sbiw	r30, 0x00	; 0
    193a:	11 f0       	breq	.+4      	; 0x1940 <__vector_38+0x50>
	{
		g_on_transmission_complete(1);
    193c:	81 e0       	ldi	r24, 0x01	; 1
    193e:	19 95       	eicall
	}
}
    1940:	ff 91       	pop	r31
    1942:	ef 91       	pop	r30
    1944:	bf 91       	pop	r27
    1946:	af 91       	pop	r26
    1948:	9f 91       	pop	r25
    194a:	8f 91       	pop	r24
    194c:	7f 91       	pop	r23
    194e:	6f 91       	pop	r22
    1950:	5f 91       	pop	r21
    1952:	4f 91       	pop	r20
    1954:	3f 91       	pop	r19
    1956:	2f 91       	pop	r18
    1958:	0f 90       	pop	r0
    195a:	0b be       	out	0x3b, r0	; 59
    195c:	0f 90       	pop	r0
    195e:	0f be       	out	0x3f, r0	; 63
    1960:	0f 90       	pop	r0
    1962:	1f 90       	pop	r1
    1964:	18 95       	reti

00001966 <__vector_53>:

ISR(USART2_TX_vect)
{	
    1966:	1f 92       	push	r1
    1968:	0f 92       	push	r0
    196a:	0f b6       	in	r0, 0x3f	; 63
    196c:	0f 92       	push	r0
    196e:	11 24       	eor	r1, r1
    1970:	0b b6       	in	r0, 0x3b	; 59
    1972:	0f 92       	push	r0
    1974:	2f 93       	push	r18
    1976:	3f 93       	push	r19
    1978:	4f 93       	push	r20
    197a:	5f 93       	push	r21
    197c:	6f 93       	push	r22
    197e:	7f 93       	push	r23
    1980:	8f 93       	push	r24
    1982:	9f 93       	push	r25
    1984:	af 93       	push	r26
    1986:	bf 93       	push	r27
    1988:	ef 93       	push	r30
    198a:	ff 93       	push	r31
	g_tx_buff_idx=0;
    198c:	10 92 4f 02 	sts	0x024F, r1	; 0x80024f <g_tx_buff_idx>
	g_tx_busy=false;
    1990:	10 92 0e 02 	sts	0x020E, r1	; 0x80020e <g_tx_busy>
	map_uart_registers(2);
    1994:	82 e0       	ldi	r24, 0x02	; 2
    1996:	e0 db       	rcall	.-2112   	; 0x1158 <map_uart_registers>
	(*UCSRnB) &= ~(1<<TXCIEn);
    1998:	e0 91 17 02 	lds	r30, 0x0217	; 0x800217 <UCSRnB>
    199c:	f0 91 18 02 	lds	r31, 0x0218	; 0x800218 <UCSRnB+0x1>
    19a0:	80 81       	ld	r24, Z
    19a2:	8f 7b       	andi	r24, 0xBF	; 191
    19a4:	80 83       	st	Z, r24
	if (g_on_transmission_complete != NULL)
    19a6:	e0 91 1b 02 	lds	r30, 0x021B	; 0x80021b <g_on_transmission_complete>
    19aa:	f0 91 1c 02 	lds	r31, 0x021C	; 0x80021c <g_on_transmission_complete+0x1>
    19ae:	30 97       	sbiw	r30, 0x00	; 0
    19b0:	11 f0       	breq	.+4      	; 0x19b6 <__vector_53+0x50>
	{
		g_on_transmission_complete(2);
    19b2:	82 e0       	ldi	r24, 0x02	; 2
    19b4:	19 95       	eicall
	}
}
    19b6:	ff 91       	pop	r31
    19b8:	ef 91       	pop	r30
    19ba:	bf 91       	pop	r27
    19bc:	af 91       	pop	r26
    19be:	9f 91       	pop	r25
    19c0:	8f 91       	pop	r24
    19c2:	7f 91       	pop	r23
    19c4:	6f 91       	pop	r22
    19c6:	5f 91       	pop	r21
    19c8:	4f 91       	pop	r20
    19ca:	3f 91       	pop	r19
    19cc:	2f 91       	pop	r18
    19ce:	0f 90       	pop	r0
    19d0:	0b be       	out	0x3b, r0	; 59
    19d2:	0f 90       	pop	r0
    19d4:	0f be       	out	0x3f, r0	; 63
    19d6:	0f 90       	pop	r0
    19d8:	1f 90       	pop	r1
    19da:	18 95       	reti

000019dc <__vector_56>:

ISR(USART3_TX_vect)
{
    19dc:	1f 92       	push	r1
    19de:	0f 92       	push	r0
    19e0:	0f b6       	in	r0, 0x3f	; 63
    19e2:	0f 92       	push	r0
    19e4:	11 24       	eor	r1, r1
    19e6:	0b b6       	in	r0, 0x3b	; 59
    19e8:	0f 92       	push	r0
    19ea:	2f 93       	push	r18
    19ec:	3f 93       	push	r19
    19ee:	4f 93       	push	r20
    19f0:	5f 93       	push	r21
    19f2:	6f 93       	push	r22
    19f4:	7f 93       	push	r23
    19f6:	8f 93       	push	r24
    19f8:	9f 93       	push	r25
    19fa:	af 93       	push	r26
    19fc:	bf 93       	push	r27
    19fe:	ef 93       	push	r30
    1a00:	ff 93       	push	r31
	g_tx_buff_idx=0;
    1a02:	10 92 4f 02 	sts	0x024F, r1	; 0x80024f <g_tx_buff_idx>
	g_tx_busy=false;
    1a06:	10 92 0e 02 	sts	0x020E, r1	; 0x80020e <g_tx_busy>
	map_uart_registers(3);
    1a0a:	83 e0       	ldi	r24, 0x03	; 3
    1a0c:	a5 db       	rcall	.-2230   	; 0x1158 <map_uart_registers>
	(*UCSRnB) &= ~(1<<TXCIEn);
    1a0e:	e0 91 17 02 	lds	r30, 0x0217	; 0x800217 <UCSRnB>
    1a12:	f0 91 18 02 	lds	r31, 0x0218	; 0x800218 <UCSRnB+0x1>
    1a16:	80 81       	ld	r24, Z
    1a18:	8f 7b       	andi	r24, 0xBF	; 191
    1a1a:	80 83       	st	Z, r24
	if (g_on_transmission_complete != NULL)
    1a1c:	e0 91 1b 02 	lds	r30, 0x021B	; 0x80021b <g_on_transmission_complete>
    1a20:	f0 91 1c 02 	lds	r31, 0x021C	; 0x80021c <g_on_transmission_complete+0x1>
    1a24:	30 97       	sbiw	r30, 0x00	; 0
    1a26:	11 f0       	breq	.+4      	; 0x1a2c <__vector_56+0x50>
	{		
		g_on_transmission_complete(3);
    1a28:	83 e0       	ldi	r24, 0x03	; 3
    1a2a:	19 95       	eicall
	}
}
    1a2c:	ff 91       	pop	r31
    1a2e:	ef 91       	pop	r30
    1a30:	bf 91       	pop	r27
    1a32:	af 91       	pop	r26
    1a34:	9f 91       	pop	r25
    1a36:	8f 91       	pop	r24
    1a38:	7f 91       	pop	r23
    1a3a:	6f 91       	pop	r22
    1a3c:	5f 91       	pop	r21
    1a3e:	4f 91       	pop	r20
    1a40:	3f 91       	pop	r19
    1a42:	2f 91       	pop	r18
    1a44:	0f 90       	pop	r0
    1a46:	0b be       	out	0x3b, r0	; 59
    1a48:	0f 90       	pop	r0
    1a4a:	0f be       	out	0x3f, r0	; 63
    1a4c:	0f 90       	pop	r0
    1a4e:	1f 90       	pop	r1
    1a50:	18 95       	reti

00001a52 <__vector_26>:


/////////////////////////transmit buffer empty interrupt callings //////////////
ISR(USART0_UDRE_vect)
{	
    1a52:	1f 92       	push	r1
    1a54:	0f 92       	push	r0
    1a56:	0f b6       	in	r0, 0x3f	; 63
    1a58:	0f 92       	push	r0
    1a5a:	11 24       	eor	r1, r1
    1a5c:	0b b6       	in	r0, 0x3b	; 59
    1a5e:	0f 92       	push	r0
    1a60:	2f 93       	push	r18
    1a62:	3f 93       	push	r19
    1a64:	4f 93       	push	r20
    1a66:	5f 93       	push	r21
    1a68:	6f 93       	push	r22
    1a6a:	7f 93       	push	r23
    1a6c:	8f 93       	push	r24
    1a6e:	9f 93       	push	r25
    1a70:	af 93       	push	r26
    1a72:	bf 93       	push	r27
    1a74:	ef 93       	push	r30
    1a76:	ff 93       	push	r31
	on_trasmit_buffer_empty (0);
    1a78:	80 e0       	ldi	r24, 0x00	; 0
    1a7a:	24 dc       	rcall	.-1976   	; 0x12c4 <on_trasmit_buffer_empty>
}
    1a7c:	ff 91       	pop	r31
    1a7e:	ef 91       	pop	r30
    1a80:	bf 91       	pop	r27
    1a82:	af 91       	pop	r26
    1a84:	9f 91       	pop	r25
    1a86:	8f 91       	pop	r24
    1a88:	7f 91       	pop	r23
    1a8a:	6f 91       	pop	r22
    1a8c:	5f 91       	pop	r21
    1a8e:	4f 91       	pop	r20
    1a90:	3f 91       	pop	r19
    1a92:	2f 91       	pop	r18
    1a94:	0f 90       	pop	r0
    1a96:	0b be       	out	0x3b, r0	; 59
    1a98:	0f 90       	pop	r0
    1a9a:	0f be       	out	0x3f, r0	; 63
    1a9c:	0f 90       	pop	r0
    1a9e:	1f 90       	pop	r1
    1aa0:	18 95       	reti

00001aa2 <__vector_37>:

ISR(USART1_UDRE_vect)
{
    1aa2:	1f 92       	push	r1
    1aa4:	0f 92       	push	r0
    1aa6:	0f b6       	in	r0, 0x3f	; 63
    1aa8:	0f 92       	push	r0
    1aaa:	11 24       	eor	r1, r1
    1aac:	0b b6       	in	r0, 0x3b	; 59
    1aae:	0f 92       	push	r0
    1ab0:	2f 93       	push	r18
    1ab2:	3f 93       	push	r19
    1ab4:	4f 93       	push	r20
    1ab6:	5f 93       	push	r21
    1ab8:	6f 93       	push	r22
    1aba:	7f 93       	push	r23
    1abc:	8f 93       	push	r24
    1abe:	9f 93       	push	r25
    1ac0:	af 93       	push	r26
    1ac2:	bf 93       	push	r27
    1ac4:	ef 93       	push	r30
    1ac6:	ff 93       	push	r31
	on_trasmit_buffer_empty (1);
    1ac8:	81 e0       	ldi	r24, 0x01	; 1
    1aca:	fc db       	rcall	.-2056   	; 0x12c4 <on_trasmit_buffer_empty>
}
    1acc:	ff 91       	pop	r31
    1ace:	ef 91       	pop	r30
    1ad0:	bf 91       	pop	r27
    1ad2:	af 91       	pop	r26
    1ad4:	9f 91       	pop	r25
    1ad6:	8f 91       	pop	r24
    1ad8:	7f 91       	pop	r23
    1ada:	6f 91       	pop	r22
    1adc:	5f 91       	pop	r21
    1ade:	4f 91       	pop	r20
    1ae0:	3f 91       	pop	r19
    1ae2:	2f 91       	pop	r18
    1ae4:	0f 90       	pop	r0
    1ae6:	0b be       	out	0x3b, r0	; 59
    1ae8:	0f 90       	pop	r0
    1aea:	0f be       	out	0x3f, r0	; 63
    1aec:	0f 90       	pop	r0
    1aee:	1f 90       	pop	r1
    1af0:	18 95       	reti

00001af2 <__vector_52>:

ISR(USART2_UDRE_vect)
{
    1af2:	1f 92       	push	r1
    1af4:	0f 92       	push	r0
    1af6:	0f b6       	in	r0, 0x3f	; 63
    1af8:	0f 92       	push	r0
    1afa:	11 24       	eor	r1, r1
    1afc:	0b b6       	in	r0, 0x3b	; 59
    1afe:	0f 92       	push	r0
    1b00:	2f 93       	push	r18
    1b02:	3f 93       	push	r19
    1b04:	4f 93       	push	r20
    1b06:	5f 93       	push	r21
    1b08:	6f 93       	push	r22
    1b0a:	7f 93       	push	r23
    1b0c:	8f 93       	push	r24
    1b0e:	9f 93       	push	r25
    1b10:	af 93       	push	r26
    1b12:	bf 93       	push	r27
    1b14:	ef 93       	push	r30
    1b16:	ff 93       	push	r31
	on_trasmit_buffer_empty (2);
    1b18:	82 e0       	ldi	r24, 0x02	; 2
    1b1a:	d4 db       	rcall	.-2136   	; 0x12c4 <on_trasmit_buffer_empty>
}
    1b1c:	ff 91       	pop	r31
    1b1e:	ef 91       	pop	r30
    1b20:	bf 91       	pop	r27
    1b22:	af 91       	pop	r26
    1b24:	9f 91       	pop	r25
    1b26:	8f 91       	pop	r24
    1b28:	7f 91       	pop	r23
    1b2a:	6f 91       	pop	r22
    1b2c:	5f 91       	pop	r21
    1b2e:	4f 91       	pop	r20
    1b30:	3f 91       	pop	r19
    1b32:	2f 91       	pop	r18
    1b34:	0f 90       	pop	r0
    1b36:	0b be       	out	0x3b, r0	; 59
    1b38:	0f 90       	pop	r0
    1b3a:	0f be       	out	0x3f, r0	; 63
    1b3c:	0f 90       	pop	r0
    1b3e:	1f 90       	pop	r1
    1b40:	18 95       	reti

00001b42 <__vector_55>:

ISR(USART3_UDRE_vect)
{
    1b42:	1f 92       	push	r1
    1b44:	0f 92       	push	r0
    1b46:	0f b6       	in	r0, 0x3f	; 63
    1b48:	0f 92       	push	r0
    1b4a:	11 24       	eor	r1, r1
    1b4c:	0b b6       	in	r0, 0x3b	; 59
    1b4e:	0f 92       	push	r0
    1b50:	2f 93       	push	r18
    1b52:	3f 93       	push	r19
    1b54:	4f 93       	push	r20
    1b56:	5f 93       	push	r21
    1b58:	6f 93       	push	r22
    1b5a:	7f 93       	push	r23
    1b5c:	8f 93       	push	r24
    1b5e:	9f 93       	push	r25
    1b60:	af 93       	push	r26
    1b62:	bf 93       	push	r27
    1b64:	ef 93       	push	r30
    1b66:	ff 93       	push	r31
	on_trasmit_buffer_empty (3);
    1b68:	83 e0       	ldi	r24, 0x03	; 3
    1b6a:	ac db       	rcall	.-2216   	; 0x12c4 <on_trasmit_buffer_empty>
    1b6c:	ff 91       	pop	r31
    1b6e:	ef 91       	pop	r30
    1b70:	bf 91       	pop	r27
    1b72:	af 91       	pop	r26
    1b74:	9f 91       	pop	r25
    1b76:	8f 91       	pop	r24
    1b78:	7f 91       	pop	r23
    1b7a:	6f 91       	pop	r22
    1b7c:	5f 91       	pop	r21
    1b7e:	4f 91       	pop	r20
    1b80:	3f 91       	pop	r19
    1b82:	2f 91       	pop	r18
    1b84:	0f 90       	pop	r0
    1b86:	0b be       	out	0x3b, r0	; 59
    1b88:	0f 90       	pop	r0
    1b8a:	0f be       	out	0x3f, r0	; 63
    1b8c:	0f 90       	pop	r0
    1b8e:	1f 90       	pop	r1
    1b90:	18 95       	reti

00001b92 <__tablejump2__>:
    1b92:	ee 0f       	add	r30, r30
    1b94:	ff 1f       	adc	r31, r31
    1b96:	88 1f       	adc	r24, r24
    1b98:	8b bf       	out	0x3b, r24	; 59
    1b9a:	07 90       	elpm	r0, Z+
    1b9c:	f6 91       	elpm	r31, Z
    1b9e:	e0 2d       	mov	r30, r0
    1ba0:	19 94       	eijmp

00001ba2 <memcpy>:
    1ba2:	fb 01       	movw	r30, r22
    1ba4:	dc 01       	movw	r26, r24
    1ba6:	02 c0       	rjmp	.+4      	; 0x1bac <memcpy+0xa>
    1ba8:	01 90       	ld	r0, Z+
    1baa:	0d 92       	st	X+, r0
    1bac:	41 50       	subi	r20, 0x01	; 1
    1bae:	50 40       	sbci	r21, 0x00	; 0
    1bb0:	d8 f7       	brcc	.-10     	; 0x1ba8 <memcpy+0x6>
    1bb2:	08 95       	ret

00001bb4 <_exit>:
    1bb4:	f8 94       	cli

00001bb6 <__stop_program>:
    1bb6:	ff cf       	rjmp	.-2      	; 0x1bb6 <__stop_program>
